LX51 LINKER/LOCATER V4.66.30.0                                                          05/16/2018  14:18:30  PAGE 1


LX51 LINKER/LOCATER V4.66.30.0, INVOKED BY:
C:\SILICONLABS\SIMPLICITYSTUDIO\V4\DEVELOPER\TOOLCHAINS\KEIL_8051\9.53\BIN\LX51.EXE ./src/F99x_SMBus_Master.OBJ, ./src/I
>> nitDevice.OBJ, ./src/Interrupts.OBJ, ./src/SILABS_STARTUP.OBJ TO F99X-98X_SMBUS_MASTER.OMF.CRBUILD REMOVEUNUSED PRINT
>>  (.\F99x-98x_SMBus_Master.m51) PAGEWIDTH (120) PAGELENGTH (65) CLASSES (ECODE (C:0X0-C:0X1FFE), HCONST (C:0X0-C:0X1FF
>> E), XDATA (X:0X0-X:0XFF), HDATA (X:0X0-X:0XFF))


CPU MODE:     8051 MODE
MEMORY MODEL: SMALL WITH FLOATING POINT ARITHMETIC


INPUT MODULES INCLUDED:
  ./src/F99x_SMBus_Master.OBJ (F99X_SMBUS_MASTER)
         COMMENT TYPE 0: C51 V9.53.0.0
  ./src/InitDevice.OBJ (INITDEVICE)
         COMMENT TYPE 0: C51 V9.53.0.0
  ./src/Interrupts.OBJ (INTERRUPTS)
         COMMENT TYPE 0: C51 V9.53.0.0
  ./src/SILABS_STARTUP.OBJ (?C_STARTUP)
         COMMENT TYPE 0: AX51 V3.12.0.0
  C:\SILICONLABS\SIMPLICITYSTUDIO\V4\DEVELOPER\TOOLCHAINS\KEIL_8051\9.53\LIB\C51FPS.LIB (?C?FPADD)
         COMMENT TYPE 1: A51 / ASM51 Assembler
  C:\SILICONLABS\SIMPLICITYSTUDIO\V4\DEVELOPER\TOOLCHAINS\KEIL_8051\9.53\LIB\C51FPS.LIB (?C?FPMUL)
         COMMENT TYPE 1: A51 / ASM51 Assembler
  C:\SILICONLABS\SIMPLICITYSTUDIO\V4\DEVELOPER\TOOLCHAINS\KEIL_8051\9.53\LIB\C51FPS.LIB (?C?FPDIV)
         COMMENT TYPE 1: A51 / ASM51 Assembler
  C:\SILICONLABS\SIMPLICITYSTUDIO\V4\DEVELOPER\TOOLCHAINS\KEIL_8051\9.53\LIB\C51FPS.LIB (?C?FCAST)
         COMMENT TYPE 1: A51 / ASM51 Assembler
  C:\SILICONLABS\SIMPLICITYSTUDIO\V4\DEVELOPER\TOOLCHAINS\KEIL_8051\9.53\LIB\C51FPS.LIB (?C?CASTF)
         COMMENT TYPE 1: A51 / ASM51 Assembler
  C:\SILICONLABS\SIMPLICITYSTUDIO\V4\DEVELOPER\TOOLCHAINS\KEIL_8051\9.53\LIB\C51FPS.LIB (?C?FPGETOPN)
         COMMENT TYPE 1: A51 / ASM51 Assembler
  C:\SILICONLABS\SIMPLICITYSTUDIO\V4\DEVELOPER\TOOLCHAINS\KEIL_8051\9.53\LIB\C51S.LIB (?C_INIT)
         COMMENT TYPE 1: A51 / ASM51 Assembler
  C:\SILICONLABS\SIMPLICITYSTUDIO\V4\DEVELOPER\TOOLCHAINS\KEIL_8051\9.53\LIB\C51S.LIB (?C?CLDPTR)
         COMMENT TYPE 1: A51 / ASM51 Assembler
  C:\SILICONLABS\SIMPLICITYSTUDIO\V4\DEVELOPER\TOOLCHAINS\KEIL_8051\9.53\LIB\C51S.LIB (?C?CSTPTR)
         COMMENT TYPE 1: A51 / ASM51 Assembler
  C:\SILICONLABS\SIMPLICITYSTUDIO\V4\DEVELOPER\TOOLCHAINS\KEIL_8051\9.53\LIB\C51S.LIB (?C?IMUL)
         COMMENT TYPE 1: A51 / ASM51 Assembler
  C:\SILICONLABS\SIMPLICITYSTUDIO\V4\DEVELOPER\TOOLCHAINS\KEIL_8051\9.53\LIB\C51S.LIB (?C?LMUL)
         COMMENT TYPE 1: A51 / ASM51 Assembler
  C:\SILICONLABS\SIMPLICITYSTUDIO\V4\DEVELOPER\TOOLCHAINS\KEIL_8051\9.53\LIB\C51S.LIB (?C?ULDIV)
         COMMENT TYPE 1: A51 / ASM51 Assembler
  C:\SILICONLABS\SIMPLICITYSTUDIO\V4\DEVELOPER\TOOLCHAINS\KEIL_8051\9.53\LIB\C51S.LIB (?C?SLDIV)
         COMMENT TYPE 1: A51 / ASM51 Assembler
  C:\SILICONLABS\SIMPLICITYSTUDIO\V4\DEVELOPER\TOOLCHAINS\KEIL_8051\9.53\LIB\C51S.LIB (?C?LNEG)
         COMMENT TYPE 1: A51 / ASM51 Assembler
  C:\SILICONLABS\SIMPLICITYSTUDIO\V4\DEVELOPER\TOOLCHAINS\KEIL_8051\9.53\LIB\C51S.LIB (?C?SLCMP)
         COMMENT TYPE 1: A51 / ASM51 Assembler
  C:\SILICONLABS\SIMPLICITYSTUDIO\V4\DEVELOPER\TOOLCHAINS\KEIL_8051\9.53\LIB\C51S.LIB (?C?ULCMP)
         COMMENT TYPE 1: A51 / ASM51 Assembler
  C:\SILICONLABS\SIMPLICITYSTUDIO\V4\DEVELOPER\TOOLCHAINS\KEIL_8051\9.53\LIB\C51S.LIB (?C?SLSHR)
         COMMENT TYPE 1: A51 / ASM51 Assembler
  C:\SILICONLABS\SIMPLICITYSTUDIO\V4\DEVELOPER\TOOLCHAINS\KEIL_8051\9.53\LIB\C51S.LIB (?C?LSHL)
         COMMENT TYPE 1: A51 / ASM51 Assembler


ACTIVE MEMORY CLASSES OF MODULE:  F99X-98X_SMBUS_MASTER.OMF.CRBUILD (F99X_SMBUS_MASTER)

BASE        START       END         USED      MEMORY CLASS
==========================================================
C:000000H   C:000000H   C:001FFEH             ECODE
LX51 LINKER/LOCATER V4.66.30.0                                                        05/16/2018  14:18:30  PAGE 2


B00:0000H   C:000000H   C:001FFEH             HCONST
X:000000H   X:000000H   X:0000FFH   000001H   XDATA
X:000000H   X:000000H   X:0000FFH             HDATA
C:000000H   C:000000H   C:00FFFFH   00125BH   CODE
I:000000H   I:000000H   I:00007FH   000068H   DATA
I:000020H.0 I:000020H.0 I:00002FH.7 000000H.5 BIT
I:000000H   I:000000H   I:0000FFH   000001H   IDATA


MEMORY MAP OF MODULE:  F99X-98X_SMBUS_MASTER.OMF.CRBUILD (F99X_SMBUS_MASTER)


START     STOP      LENGTH    ALIGN  RELOC    MEMORY CLASS   SEGMENT NAME
=========================================================================

* * * * * * * * * * *   D A T A   M E M O R Y   * * * * * * * * * * * * *
000000H   000007H   000008H   ---    AT..     DATA           "REG BANK 0"
000008H   000008H   000001H   BYTE   UNIT     DATA           ?DT?INTERRUPTS
000009H.0 00001FH.7 000017H.0 ---    ---      **GAP**
000020H.0 000020H.3 000000H.4 BIT    UNIT     BIT            ?BI?F99X_SMBUS_MASTER
000020H.4 000020H.4 000000H.1 BIT    UNIT     BIT            _BIT_GROUP_
000020H.5 000020H   000000H.3 ---    ---      **GAP**
000021H   000058H   000038H   BYTE   UNIT     DATA           ?DT?F99X_SMBUS_MASTER
000059H   00007FH   000027H   BYTE   UNIT     DATA           _DATA_GROUP_
000080H   000080H   000001H   BYTE   UNIT     IDATA          ?STACK

* * * * * * * * * * *   C O D E   M E M O R Y   * * * * * * * * * * * * *
000000H   000002H   000003H   ---    OFFS..   CODE           ?CO?SILABS_STARTUP?3
000003H   000023H   000021H   BYTE   UNIT     CODE           ?PR?_SMB_READ_REG?F99X_SMBUS_MASTER
000024H   00002AH   000007H   BYTE   UNIT     CODE           ?PR?PCA_0_ENTER_DEFAULTMODE_FROM_RESET?INITDEVICE
00002BH   00002DH   000003H   BYTE   OFFS..   CODE           ?F99X_SMBUS_MASTER?0002B
00002EH   00003AH   00000DH   BYTE   UNIT     CODE           ?PR?SMB_WRITE?F99X_SMBUS_MASTER
00003BH   00003DH   000003H   BYTE   OFFS..   CODE           ?INTERRUPTS?0003B
00003EH   000550H   000513H   BYTE   UNIT     CODE           ?C?LIB_CODE
000551H   00082BH   0002DBH   BYTE   UNIT     CODE           ?PR?_GETHUM?F99X_SMBUS_MASTER
00082CH   000A96H   00026BH   BYTE   UNIT     CODE           ?PR?_GETGAS?F99X_SMBUS_MASTER
000A97H   000C49H   0001B3H   BYTE   UNIT     CODE           ?PR?GETHEAT?F99X_SMBUS_MASTER
000C4AH   000DDFH   000196H   BYTE   UNIT     CODE           ?PR?MAIN?F99X_SMBUS_MASTER
000DE0H   000EFBH   00011CH   BYTE   UNIT     CODE           ?PR?_GETTEMP?F99X_SMBUS_MASTER
000EFCH   001000H   000105H   BYTE   UNIT     CODE           ?PR?SMBUS0_ISR?INTERRUPTS
001001H   00108FH   00008FH   BYTE   UNIT     CODE           ?C_C51STARTUP
001090H   0010DAH   00004BH   BYTE   UNIT     CODE           ?PR?BME680INIT?F99X_SMBUS_MASTER
0010DBH   001124H   00004AH   BYTE   UNIT     CODE           ?PR?READ_CO2?F99X_SMBUS_MASTER
001125H   001168H   000044H   BYTE   UNIT     CODE           ?C?LDIV
001169H   001189H   000021H   BYTE   UNIT     CODE           ?PR?TIMER2_ISR?F99X_SMBUS_MASTER
00118AH   0011A3H   00001AH   BYTE   UNIT     CODE           ?C_INITSEG
0011A4H   0011BCH   000019H   BYTE   UNIT     CODE           ?PR?TIMER16_2_ENTER_DEFAULTMODE_FROM_RESET?INITDEVICE
0011BDH   0011CEH   000012H   BYTE   UNIT     CODE           ?PR?ADC?F99X_SMBUS_MASTER
0011CFH   0011E0H   000012H   BYTE   UNIT     CODE           ?PR?ENTER_DEFAULTMODE_FROM_RESET?INITDEVICE
0011E1H   0011F2H   000012H   BYTE   UNIT     CODE           ?PR?ENTER_MODE2_FROM_DEFAULTMODE?INITDEVICE
0011F3H   001203H   000011H   BYTE   UNIT     CODE           ?PR?_SMB_WRITE_REG?F99X_SMBUS_MASTER
001204H   001210H   00000DH   BYTE   UNIT     CODE           ?PR?SMB_READ?F99X_SMBUS_MASTER
001211H   00121DH   00000DH   BYTE   UNIT     CODE           ?PR?TIMER_SETUP_0_ENTER_MODE2_FROM_DEFAULTMODE?INITDEVICE
00121EH   001228H   00000BH   BYTE   UNIT     CODE           ?PR?TIMER00_0_ENTER_MODE2_FROM_DEFAULTMODE?INITDEVICE
001229H   00122FH   000007H   BYTE   UNIT     CODE           ?PR?PORTS_1_ENTER_MODE2_FROM_DEFAULTMODE?INITDEVICE
001230H   001236H   000007H   BYTE   UNIT     CODE           ?PR?PBCFG_0_ENTER_MODE2_FROM_DEFAULTMODE?INITDEVICE
001237H   00123DH   000007H   BYTE   UNIT     CODE           ?PR?INTERRUPT_0_ENTER_MODE2_FROM_DEFAULTMODE?INITDEVICE
00123EH   001241H   000004H   BYTE   UNIT     CODE           ?PR?SLEEPMODE?F99X_SMBUS_MASTER
001242H   001245H   000004H   BYTE   UNIT     CODE           ?PR?WAKEUP?F99X_SMBUS_MASTER
001246H   001249H   000004H   BYTE   UNIT     CODE           ?PR?VREG_0_ENTER_DEFAULTMODE_FROM_RESET?INITDEVICE
00124AH   00124DH   000004H   BYTE   UNIT     CODE           ?PR?HFOSC_0_ENTER_DEFAULTMODE_FROM_RESET?INITDEVICE
00124EH   001251H   000004H   BYTE   UNIT     CODE           ?PR?CLOCK_0_ENTER_DEFAULTMODE_FROM_RESET?INITDEVICE
LX51 LINKER/LOCATER V4.66.30.0                                                        05/16/2018  14:18:30  PAGE 3


001252H   001255H   000004H   BYTE   UNIT     CODE           ?PR?SMBUS_0_ENTER_MODE2_FROM_DEFAULTMODE?INITDEVICE
001256H   001259H   000004H   BYTE   UNIT     CODE           ?PR?UART_0_ENTER_DEFAULTMODE_FROM_RESET?INITDEVICE
00125AH   00125AH   000001H   BYTE   UNIT     CODE           ?PR?SILABS_STARTUP?F99X_SMBUS_MASTER

* * * * * * * * * * *  X D A T A   M E M O R Y  * * * * * * * * * * * * *
000000H   000000H   000001H   BYTE   OFFS..   XDATA          ?XD?F99X_SMBUS_MASTER?0

* * * * * * * * *   R E M O V E D     S E G M E N T S   * * * * * * * *
   *DEL*:           00000DH   BYTE   UNIT     CODE           ?PR?UART_INIT?F99X_SMBUS_MASTER
   *DEL*:           000008H   BYTE   UNIT     CODE           ?PR?_UART_SEND?F99X_SMBUS_MASTER
   *DEL*:           0000ECH   BYTE   UNIT     CODE           ?PR?_PRINT?F99X_SMBUS_MASTER
   *DEL*:           000018H   BYTE   UNIT     DATA           ?DT?_PRINT?F99X_SMBUS_MASTER
   *DEL*:           000019H   BYTE   UNIT     CODE           ?PR?TIMER16_3_ENTER_MODE2_FROM_DEFAULTMODE?INITDEVICE
   *DEL*:           0000A0H   BYTE   UNIT     CODE           ?PR?RTC_0_ENTER_DEFAULTMODE_FROM_RESET?INITDEVICE
   *DEL*:           000004H   BYTE   UNIT     CODE           ?PR?RSTSRC_0_ENTER_DEFAULTMODE_FROM_RESET?INITDEVICE
   *DEL*:           00000BH   BYTE   UNIT     CODE           ?PR?TIMER01_0_ENTER_DEFAULTMODE_FROM_RESET?INITDEVICE



OVERLAY MAP OF MODULE:   F99X-98X_SMBUS_MASTER.OMF.CRBUILD (F99X_SMBUS_MASTER)


FUNCTION/MODULE                                BIT_GROUP   DATA_GROUP 
--> CALLED FUNCTION/MODULE                    START  STOP  START  STOP
======================================================================
TIMER2_ISR/F99X_SMBUS_MASTER                  ----- -----  ----- -----
  +--> WAKEUP/F99X_SMBUS_MASTER

WAKEUP/F99X_SMBUS_MASTER                      ----- -----  ----- -----

*** NEW ROOT ********************************

SMBUS0_ISR/INTERRUPTS                         20H.4 20H.4  ----- -----

*** NEW ROOT ********************************

?C_C51STARTUP                                 ----- -----  ----- -----
  +--> SILABS_STARTUP/F99X_SMBUS_MASTER
  +--> MAIN/F99X_SMBUS_MASTER
  +--> ?C_INITSEG

SILABS_STARTUP/F99X_SMBUS_MASTER              ----- -----  ----- -----

MAIN/F99X_SMBUS_MASTER                        ----- -----  ----- -----
  +--> ENTER_DEFAULTMODE_FROM_RESET/INITDEVICE
  +--> ENTER_MODE2_FROM_DEFAULTMODE/INITDEVICE
  +--> ADC/F99X_SMBUS_MASTER
  +--> SLEEPMODE/F99X_SMBUS_MASTER
  +--> BME680INIT/F99X_SMBUS_MASTER
  +--> _SMB_READ_REG/F99X_SMBUS_MASTER
  +--> _GETTEMP/F99X_SMBUS_MASTER
  +--> _GETHUM/F99X_SMBUS_MASTER
  +--> _GETGAS/F99X_SMBUS_MASTER
  +--> READ_CO2/F99X_SMBUS_MASTER

ENTER_DEFAULTMODE_FROM_RESET/INITDEVICE       ----- -----  ----- -----
  +--> PCA_0_ENTER_DEFAULTMODE_FROM_RESET/INITDEVICE
  +--> VREG_0_ENTER_DEFAULTMODE_FROM_RESET/INITDEVICE
  +--> HFOSC_0_ENTER_DEFAULTMODE_FROM_RESET/INITDEVICE
  +--> CLOCK_0_ENTER_DEFAULTMODE_FROM_RESET/INITDEVICE
  +--> TIMER16_2_ENTER_DEFAULTMODE_FROM_RESET/INITDEVICE
  +--> UART_0_ENTER_DEFAULTMODE_FROM_RESET/INITDEVICE
LX51 LINKER/LOCATER V4.66.30.0                                                        05/16/2018  14:18:30  PAGE 4



PCA_0_ENTER_DEFAULTMODE_FROM_RESET/INITD+     ----- -----  ----- -----
... EVICE

VREG_0_ENTER_DEFAULTMODE_FROM_RESET/INIT+     ----- -----  ----- -----
... DEVICE

HFOSC_0_ENTER_DEFAULTMODE_FROM_RESET/INI+     ----- -----  ----- -----
... TDEVICE

CLOCK_0_ENTER_DEFAULTMODE_FROM_RESET/INI+     ----- -----  ----- -----
... TDEVICE

TIMER16_2_ENTER_DEFAULTMODE_FROM_RESET/I+     ----- -----  ----- -----
... NITDEVICE

UART_0_ENTER_DEFAULTMODE_FROM_RESET/INIT+     ----- -----  ----- -----
... DEVICE

ENTER_MODE2_FROM_DEFAULTMODE/INITDEVICE       ----- -----  ----- -----
  +--> PORTS_1_ENTER_MODE2_FROM_DEFAULTMODE/INITDEVICE
  +--> PBCFG_0_ENTER_MODE2_FROM_DEFAULTMODE/INITDEVICE
  +--> SMBUS_0_ENTER_MODE2_FROM_DEFAULTMODE/INITDEVICE
  +--> TIMER00_0_ENTER_MODE2_FROM_DEFAULTMODE/INITDEVICE
  +--> TIMER_SETUP_0_ENTER_MODE2_FROM_DEFAULTMODE/INITDEVICE
  +--> INTERRUPT_0_ENTER_MODE2_FROM_DEFAULTMODE/INITDEVICE

PORTS_1_ENTER_MODE2_FROM_DEFAULTMODE/INI+     ----- -----  ----- -----
... TDEVICE

PBCFG_0_ENTER_MODE2_FROM_DEFAULTMODE/INI+     ----- -----  ----- -----
... TDEVICE

SMBUS_0_ENTER_MODE2_FROM_DEFAULTMODE/INI+     ----- -----  ----- -----
... TDEVICE

TIMER00_0_ENTER_MODE2_FROM_DEFAULTMODE/I+     ----- -----  ----- -----
... NITDEVICE

TIMER_SETUP_0_ENTER_MODE2_FROM_DEFAULTMO+     ----- -----  ----- -----
... DE/INITDEVICE

INTERRUPT_0_ENTER_MODE2_FROM_DEFAULTMODE+     ----- -----  ----- -----
... /INITDEVICE

ADC/F99X_SMBUS_MASTER                         ----- -----  ----- -----

SLEEPMODE/F99X_SMBUS_MASTER                   ----- -----  ----- -----

BME680INIT/F99X_SMBUS_MASTER                  ----- -----  0059H 005CH
  +--> _SMB_WRITE_REG/F99X_SMBUS_MASTER
  +--> GETHEAT/F99X_SMBUS_MASTER

_SMB_WRITE_REG/F99X_SMBUS_MASTER              ----- -----  ----- -----
  +--> SMB_WRITE/F99X_SMBUS_MASTER

SMB_WRITE/F99X_SMBUS_MASTER                   ----- -----  ----- -----

GETHEAT/F99X_SMBUS_MASTER                     ----- -----  005DH 007EH
  +--> _SMB_READ_REG/F99X_SMBUS_MASTER

_SMB_READ_REG/F99X_SMBUS_MASTER               ----- -----  007FH 007FH
LX51 LINKER/LOCATER V4.66.30.0                                                        05/16/2018  14:18:30  PAGE 5


  +--> SMB_WRITE/F99X_SMBUS_MASTER
  +--> SMB_READ/F99X_SMBUS_MASTER

SMB_READ/F99X_SMBUS_MASTER                    ----- -----  ----- -----

_GETTEMP/F99X_SMBUS_MASTER                    ----- -----  0059H 006FH

_GETHUM/F99X_SMBUS_MASTER                     ----- -----  0059H 0073H
  +--> _SMB_READ_REG/F99X_SMBUS_MASTER

_GETGAS/F99X_SMBUS_MASTER                     ----- -----  0059H 0074H
  +--> _SMB_READ_REG/F99X_SMBUS_MASTER

READ_CO2/F99X_SMBUS_MASTER                    ----- -----  0059H 005AH
  +--> SLEEPMODE/F99X_SMBUS_MASTER
  +--> SMB_WRITE/F99X_SMBUS_MASTER
  +--> SMB_READ/F99X_SMBUS_MASTER

?C_INITSEG                                    ----- -----  ----- -----



PUBLIC SYMBOLS OF MODULE:  F99X-98X_SMBUS_MASTER.OMF.CRBUILD (F99X_SMBUS_MASTER)


      VALUE       CLASS    TYPE      PUBLIC SYMBOL NAME
      =================================================
*DEL*:00000000H   DATA     BYTE      ?_print?BYTE
      0100031AH   CODE     ---       ?C?CASTF
      0100039BH   CODE     ---       ?C?CLDPTR
      00000000H   NUMBER   ---       ?C?CODESEG
      010003B4H   CODE     ---       ?C?CSTPTR
      010002E6H   CODE     ---       ?C?FCASTC
      010002E1H   CODE     ---       ?C?FCASTI
      010002DCH   CODE     ---       ?C?FCASTL
      01000045H   CODE     ---       ?C?FPADD
      0100023FH   CODE     ---       ?C?FPDIV
      01000351H   CODE     ---       ?C?FPGETOPN2
      01000136H   CODE     ---       ?C?FPMUL
      01000386H   CODE     ---       ?C?FPNANRESULT
      01000390H   CODE     ---       ?C?FPOVERFLOW
      01000368H   CODE     ---       ?C?FPRESULT
      0100037CH   CODE     ---       ?C?FPRESULT2
      01000041H   CODE     ---       ?C?FPSUB
      0100038DH   CODE     ---       ?C?FPUNDERFLOW
      010003C6H   CODE     ---       ?C?IMUL
      010003D8H   CODE     ---       ?C?LMUL
      010004F5H   CODE     ---       ?C?LNEG
      0100053EH   CODE     ---       ?C?LSHL
      01000503H   CODE     ---       ?C?SLCMP
      01001125H   CODE     ---       ?C?SLDIV
      0100052AH   CODE     ---       ?C?SLSHR
      01000519H   CODE     ---       ?C?ULCMP
      01000463H   CODE     ---       ?C?ULDIV
      00000000H   NUMBER   ---       ?C?XDATASEG
      0100104BH   CODE     ---       ?C_START
      01000000H   CODE     NEAR LAB  ?C_STARTUP
      0100082CH   CODE     ---       _getGas
      01000551H   CODE     ---       _getHum
      01000DE0H   CODE     ---       _getTemp
*DEL*:00000000H   CODE     ---       _print
      01000003H   CODE     ---       _SMB_Read_Reg
LX51 LINKER/LOCATER V4.66.30.0                                                        05/16/2018  14:18:30  PAGE 6


      010011F3H   CODE     ---       _SMB_Write_Reg
*DEL*:00000000H   CODE     ---       _UART_Send
      00000054H   DATA     LONG      a
*SFR* 000000E0H   DATA     BYTE      ACC
*SFR* 000000E0H   DATA     BIT       ACC_ACC0
*SFR* 000000E0H.1 DATA     BIT       ACC_ACC1
*SFR* 000000E0H.2 DATA     BIT       ACC_ACC2
*SFR* 000000E0H.3 DATA     BIT       ACC_ACC3
*SFR* 000000E0H.4 DATA     BIT       ACC_ACC4
*SFR* 000000E0H.5 DATA     BIT       ACC_ACC5
*SFR* 000000E0H.6 DATA     BIT       ACC_ACC6
*SFR* 000000E0H.7 DATA     BIT       ACC_ACC7
      010011BDH   CODE     ---       ADC
*SFR* 000000BDH   DATA     WORD      ADC0
*SFR* 000000BAH   DATA     BYTE      ADC0AC
*SFR* 00000097H   DATA     BYTE      ADC0CF
*SFR* 000000E8H   DATA     BYTE      ADC0CN
*SFR* 000000E8H.6 DATA     BIT       ADC0CN_ADBMEN
*SFR* 000000E8H.4 DATA     BIT       ADC0CN_ADBUSY
*SFR* 000000E8H   DATA     BIT       ADC0CN_ADCM0
*SFR* 000000E8H.1 DATA     BIT       ADC0CN_ADCM1
*SFR* 000000E8H.2 DATA     BIT       ADC0CN_ADCM2
*SFR* 000000E8H.7 DATA     BIT       ADC0CN_ADEN
*SFR* 000000E8H.5 DATA     BIT       ADC0CN_ADINT
*SFR* 000000E8H.3 DATA     BIT       ADC0CN_ADWINT
*SFR* 000000C3H   DATA     WORD      ADC0GT
*SFR* 000000C4H   DATA     BYTE      ADC0GTH
*SFR* 000000C3H   DATA     BYTE      ADC0GTL
*SFR* 000000BEH   DATA     BYTE      ADC0H
*SFR* 000000BDH   DATA     BYTE      ADC0L
*SFR* 000000C5H   DATA     WORD      ADC0LT
*SFR* 000000C6H   DATA     BYTE      ADC0LTH
*SFR* 000000C5H   DATA     BYTE      ADC0LTL
*SFR* 00000096H   DATA     BYTE      ADC0MX
*SFR* 000000BBH   DATA     BYTE      ADC0PWR
*SFR* 000000BCH   DATA     BYTE      ADC0TK
*SFR* 00000090H.4 DATA     BIT       ADC_PIN
      00000008H   DATA     BYTE      ADDR_SEND
*SFR* 000000F0H   DATA     BYTE      B
*SFR* 000000F0H   DATA     BIT       B_B0
*SFR* 000000F0H.1 DATA     BIT       B_B1
*SFR* 000000F0H.2 DATA     BIT       B_B2
*SFR* 000000F0H.3 DATA     BIT       B_B3
*SFR* 000000F0H.4 DATA     BIT       B_B4
*SFR* 000000F0H.5 DATA     BIT       B_B5
*SFR* 000000F0H.6 DATA     BIT       B_B6
*SFR* 000000F0H.7 DATA     BIT       B_B7
*SFR* 00000090H.3 DATA     BIT       BME680_ON
      01001090H   CODE     ---       BME680Init
      00000045H   DATA     LONG      calc_hum
      00000049H   DATA     DWORD     cc
*SFR* 0000008EH   DATA     BYTE      CKCON
*SFR* 000000A9H   DATA     BYTE      CLKSEL
      0100124EH   CODE     ---       CLOCK_0_enter_DefaultMode_from_RESET
      00000020H.2 BIT      BIT       CO2_MODE
*SFR* 00000090H.5 DATA     BIT       CO2_ON
      0000003CH   DATA     WORD      count
      0000004FH   DATA     DWORD     count_max
*SFR* 0000009BH   DATA     BYTE      CPT0CN
*SFR* 0000009DH   DATA     BYTE      CPT0MD
*SFR* 0000009FH   DATA     BYTE      CPT0MX
*SFR* 0000009EH   DATA     BYTE      CRC0AUTO
LX51 LINKER/LOCATER V4.66.30.0                                                        05/16/2018  14:18:30  PAGE 7


*SFR* 00000084H   DATA     BYTE      CRC0CN
*SFR* 0000009AH   DATA     BYTE      CRC0CNT
*SFR* 00000086H   DATA     BYTE      CRC0DAT
*SFR* 0000009CH   DATA     BYTE      CRC0FLIP
*SFR* 00000085H   DATA     BYTE      CRC0IN
*SFR* 000000AAH   DATA     BYTE      CS0CF
*SFR* 000000B0H   DATA     BYTE      CS0CN
*SFR* 000000B0H.4 DATA     BIT       CS0CN_CSBUSY
*SFR* 000000B0H.3 DATA     BIT       CS0CN_CSCMPEN
*SFR* 000000B0H   DATA     BIT       CS0CN_CSCMPF
*SFR* 000000B0H.7 DATA     BIT       CS0CN_CSEN
*SFR* 000000B0H.6 DATA     BIT       CS0CN_CSEOS
*SFR* 000000B0H.5 DATA     BIT       CS0CN_CSINT
*SFR* 000000B0H.1 DATA     BIT       CS0CN_CSPME
*SFR* 000000EEH   DATA     BYTE      CS0DH
*SFR* 000000EDH   DATA     BYTE      CS0DL
*SFR* 000000AFH   DATA     BYTE      CS0MD1
*SFR* 000000F3H   DATA     BYTE      CS0MD2
*SFR* 000000F3H   DATA     BYTE      CS0MD3
*SFR* 000000ABH   DATA     BYTE      CS0MX
*SFR* 000000DEH   DATA     BYTE      CS0PM
*SFR* 000000D2H   DATA     BYTE      CS0SCAN0
*SFR* 000000D3H   DATA     BYTE      CS0SCAN1
*SFR* 000000DEH   DATA     BYTE      CS0SE
*SFR* 000000DDH   DATA     BYTE      CS0SS
*SFR* 000000FEH   DATA     BYTE      CS0THH
*SFR* 000000FDH   DATA     BYTE      CS0THL
      00000042H   DATA     WORD      DATA_CO2_IN
      00000026H   DATA     ---       DATA_CO2_OUT
*SFR* 000000E3H   DATA     BYTE      DERIVID
*SFR* 00000082H   DATA     WORD      DP
*SFR* 00000083H   DATA     BYTE      DPH
*SFR* 00000082H   DATA     BYTE      DPL
*SFR* 000000E6H   DATA     BYTE      EIE1
*SFR* 000000E7H   DATA     BYTE      EIE2
*SFR* 000000F6H   DATA     BYTE      EIP1
*SFR* 000000F7H   DATA     BYTE      EIP2
      010011CFH   CODE     ---       enter_DefaultMode_from_RESET
      010011E1H   CODE     ---       enter_Mode2_from_DefaultMode
*SFR* 000000B7H   DATA     BYTE      FLKEY
*SFR* 000000B6H   DATA     BYTE      FLSCL
*SFR* 000000E5H   DATA     BYTE      FLWR
      0000003EH   DATA     LONG      gas_range
      01000A97H   CODE     ---       getHeat
      0100124AH   CODE     ---       HFOSC_0_enter_DefaultMode_from_RESET
*SFR* 000000A8H   DATA     BYTE      IE
*SFR* 000000A8H.7 DATA     BIT       IE_EA
*SFR* 000000A8H.4 DATA     BIT       IE_ES0
*SFR* 000000A8H.6 DATA     BIT       IE_ESPI0
*SFR* 000000A8H.1 DATA     BIT       IE_ET0
*SFR* 000000A8H.3 DATA     BIT       IE_ET1
*SFR* 000000A8H.5 DATA     BIT       IE_ET2
*SFR* 000000A8H   DATA     BIT       IE_EX0
*SFR* 000000A8H.2 DATA     BIT       IE_EX1
      01001237H   CODE     ---       INTERRUPT_0_enter_Mode2_from_DefaultMode
*SFR* 000000B8H   DATA     BYTE      IP
*SFR* 000000B8H.4 DATA     BIT       IP_PS0
*SFR* 000000B8H.6 DATA     BIT       IP_PSPI0
*SFR* 000000B8H.1 DATA     BIT       IP_PT0
*SFR* 000000B8H.3 DATA     BIT       IP_PT1
*SFR* 000000B8H.5 DATA     BIT       IP_PT2
*SFR* 000000B8H   DATA     BIT       IP_PX0
LX51 LINKER/LOCATER V4.66.30.0                                                        05/16/2018  14:18:30  PAGE 8


*SFR* 000000B8H.2 DATA     BIT       IP_PX1
*SFR* 000000B9H   DATA     BYTE      IREF0CF
*SFR* 000000D6H   DATA     BYTE      IREF0CN
*SFR* 000000E4H   DATA     BYTE      IT01CF
      00000021H   DATA     BYTE      length
*SFR* 00000090H.2 DATA     BIT       LUX_ON
      01000C4AH   CODE     ---       main
*SFR* 000000B3H   DATA     BYTE      OSCICL
*SFR* 000000B2H   DATA     BYTE      OSCICN
*SFR* 000000B1H   DATA     BYTE      OSCXCN
*SFR* 00000080H   DATA     BYTE      P0
*SFR* 00000080H   DATA     BIT       P0_B0
*SFR* 00000080H.1 DATA     BIT       P0_B1
*SFR* 00000080H.2 DATA     BIT       P0_B2
*SFR* 00000080H.3 DATA     BIT       P0_B3
*SFR* 00000080H.4 DATA     BIT       P0_B4
*SFR* 00000080H.5 DATA     BIT       P0_B5
*SFR* 00000080H.6 DATA     BIT       P0_B6
*SFR* 00000080H.7 DATA     BIT       P0_B7
*SFR* 00000099H   DATA     BYTE      P0DRV
*SFR* 000000C7H   DATA     BYTE      P0MASK
*SFR* 000000D7H   DATA     BYTE      P0MAT
*SFR* 000000F1H   DATA     BYTE      P0MDIN
*SFR* 000000A4H   DATA     BYTE      P0MDOUT
*SFR* 000000D4H   DATA     BYTE      P0SKIP
*SFR* 00000090H   DATA     BYTE      P1
*SFR* 00000090H   DATA     BIT       P1_B0
*SFR* 00000090H.1 DATA     BIT       P1_B1
*SFR* 00000090H.2 DATA     BIT       P1_B2
*SFR* 00000090H.3 DATA     BIT       P1_B3
*SFR* 00000090H.4 DATA     BIT       P1_B4
*SFR* 00000090H.5 DATA     BIT       P1_B5
*SFR* 00000090H.6 DATA     BIT       P1_B6
*SFR* 00000090H.7 DATA     BIT       P1_B7
*SFR* 0000009BH   DATA     BYTE      P1DRV
*SFR* 000000BFH   DATA     BYTE      P1MASK
*SFR* 000000CFH   DATA     BYTE      P1MAT
*SFR* 000000F2H   DATA     BYTE      P1MDIN
*SFR* 000000A5H   DATA     BYTE      P1MDOUT
*SFR* 000000D5H   DATA     BYTE      P1SKIP
*SFR* 000000A0H   DATA     BYTE      P2
*SFR* 000000A0H.7 DATA     BIT       P2_B7
*SFR* 0000009DH   DATA     BYTE      P2DRV
*SFR* 000000A6H   DATA     BYTE      P2MDOUT
      01001230H   CODE     ---       PBCFG_0_enter_Mode2_from_DefaultMode
*SFR* 000000F9H   DATA     WORD      PCA0
*SFR* 000000D8H   DATA     BYTE      PCA0CN
*SFR* 000000D8H   DATA     BIT       PCA0CN_CCF0
*SFR* 000000D8H.1 DATA     BIT       PCA0CN_CCF1
*SFR* 000000D8H.2 DATA     BIT       PCA0CN_CCF2
*SFR* 000000D8H.7 DATA     BIT       PCA0CN_CF
*SFR* 000000D8H.6 DATA     BIT       PCA0CN_CR
*SFR* 000000FBH   DATA     WORD      PCA0CP0
*SFR* 000000E9H   DATA     WORD      PCA0CP1
*SFR* 000000EBH   DATA     WORD      PCA0CP2
*SFR* 000000FCH   DATA     BYTE      PCA0CPH0
*SFR* 000000EAH   DATA     BYTE      PCA0CPH1
*SFR* 000000ECH   DATA     BYTE      PCA0CPH2
*SFR* 000000FBH   DATA     BYTE      PCA0CPL0
*SFR* 000000E9H   DATA     BYTE      PCA0CPL1
*SFR* 000000EBH   DATA     BYTE      PCA0CPL2
*SFR* 000000DAH   DATA     BYTE      PCA0CPM0
LX51 LINKER/LOCATER V4.66.30.0                                                        05/16/2018  14:18:30  PAGE 9


*SFR* 000000DBH   DATA     BYTE      PCA0CPM1
*SFR* 000000DCH   DATA     BYTE      PCA0CPM2
*SFR* 000000FAH   DATA     BYTE      PCA0H
*SFR* 000000F9H   DATA     BYTE      PCA0L
*SFR* 000000D9H   DATA     BYTE      PCA0MD
*SFR* 000000DFH   DATA     BYTE      PCA0PWM
      01000024H   CODE     ---       PCA_0_enter_DefaultMode_from_RESET
*SFR* 00000087H   DATA     BYTE      PCON
*SFR* 000000B5H   DATA     BYTE      PMU0CF
*SFR* 000000CEH   DATA     BYTE      PMU0FL
*SFR* 000000B5H   DATA     BYTE      PMU0MD
      01001229H   CODE     ---       PORTS_1_enter_Mode2_from_DefaultMode
*SFR* 000000A0H   DATA     BYTE      PPAGE_SFR
*SFR* 0000008FH   DATA     BYTE      PSCTL
*SFR* 000000D0H   DATA     BYTE      PSW
*SFR* 000000D0H.6 DATA     BIT       PSW_AC
*SFR* 000000D0H.7 DATA     BIT       PSW_CY
*SFR* 000000D0H.5 DATA     BIT       PSW_F0
*SFR* 000000D0H.1 DATA     BIT       PSW_F1
*SFR* 000000D0H.2 DATA     BIT       PSW_OV
*SFR* 000000D0H   DATA     BIT       PSW_PARITY
*SFR* 000000D0H.3 DATA     BIT       PSW_RS0
*SFR* 000000D0H.4 DATA     BIT       PSW_RS1
      010010DBH   CODE     ---       Read_CO2
      00000020H.1 BIT      BIT       ready
*SFR* 000000D1H   DATA     BYTE      REF0CN
*SFR* 000000C9H   DATA     BYTE      REG0CN
      02000000H   XDATA    BYTE      reserved
*SFR* 000000E2H   DATA     BYTE      REVID
*SFR* 000000EFH   DATA     BYTE      RSTSRC
*DEL*:00000000H   CODE     ---       RSTSRC_0_enter_DefaultMode_from_RESET
*SFR* 000000ACH   DATA     BYTE      RTC0ADR
*SFR* 000000ADH   DATA     BYTE      RTC0DAT
*SFR* 000000AEH   DATA     BYTE      RTC0KEY
*DEL*:00000000H   CODE     ---       RTC_0_enter_DefaultMode_from_RESET
      00000037H   DATA     BYTE      RW_Reg
*SFR* 00000099H   DATA     BYTE      SBUF0
*SFR* 00000080H.1 DATA     BIT       SCL
*SFR* 00000098H   DATA     BYTE      SCON0
*SFR* 00000098H.5 DATA     BIT       SCON0_MCE
*SFR* 00000098H.2 DATA     BIT       SCON0_RB8
*SFR* 00000098H.4 DATA     BIT       SCON0_REN
*SFR* 00000098H   DATA     BIT       SCON0_RI
*SFR* 00000098H.7 DATA     BIT       SCON0_SMODE
*SFR* 00000098H.3 DATA     BIT       SCON0_TB8
*SFR* 00000098H.1 DATA     BIT       SCON0_TI
*SFR* 00000080H   DATA     BIT       SDA
*SFR* 000000A7H   DATA     BYTE      SFRPAGE
      0100125AH   CODE     ---       SiLabs_Startup
      0100123EH   CODE     ---       sleepMode
*SFR* 000000F5H   DATA     BYTE      SMB0ADM
*SFR* 000000F4H   DATA     BYTE      SMB0ADR
*SFR* 000000C1H   DATA     BYTE      SMB0CF
*SFR* 000000C0H   DATA     BYTE      SMB0CN
*SFR* 000000C0H.1 DATA     BIT       SMB0CN_ACK
*SFR* 000000C0H.3 DATA     BIT       SMB0CN_ACKRQ
*SFR* 000000C0H.2 DATA     BIT       SMB0CN_ARBLOST
*SFR* 000000C0H.7 DATA     BIT       SMB0CN_MASTER
*SFR* 000000C0H   DATA     BIT       SMB0CN_SI
*SFR* 000000C0H.5 DATA     BIT       SMB0CN_STA
*SFR* 000000C0H.4 DATA     BIT       SMB0CN_STO
*SFR* 000000C0H.6 DATA     BIT       SMB0CN_TXMODE
LX51 LINKER/LOCATER V4.66.30.0                                                        05/16/2018  14:18:30  PAGE 10


*SFR* 000000C2H   DATA     BYTE      SMB0DAT
      00000020H.0 BIT      BIT       SMB_BUSY
      00000053H   DATA     BYTE      SMB_DATA_IN
      00000044H   DATA     BYTE      SMB_DATA_OUT
      01001204H   CODE     ---       SMB_Read
      00000058H   DATA     BYTE      SMB_REG_OUT
      00000020H.3 BIT      BIT       SMB_RW
      0100002EH   CODE     ---       SMB_Write
      01000EFCH   CODE     ---       SMBUS0_ISR
      01001252H   CODE     ---       SMBUS_0_enter_Mode2_from_DefaultMode
*SFR* 00000081H   DATA     BYTE      SP
*SFR* 000000A1H   DATA     BYTE      SPI0CFG
*SFR* 000000A2H   DATA     BYTE      SPI0CKR
*SFR* 000000F8H   DATA     BYTE      SPI0CN
*SFR* 000000F8H.5 DATA     BIT       SPI0CN_MODF
*SFR* 000000F8H.2 DATA     BIT       SPI0CN_NSSMD0
*SFR* 000000F8H.3 DATA     BIT       SPI0CN_NSSMD1
*SFR* 000000F8H.4 DATA     BIT       SPI0CN_RXOVRN
*SFR* 000000F8H   DATA     BIT       SPI0CN_SPIEN
*SFR* 000000F8H.7 DATA     BIT       SPI0CN_SPIF
*SFR* 000000F8H.1 DATA     BIT       SPI0CN_TXBMT
*SFR* 000000F8H.6 DATA     BIT       SPI0CN_WCOL
*SFR* 000000A3H   DATA     BYTE      SPI0DAT
      0000004EH   DATA     BYTE      START_SMB
      0000004DH   DATA     BYTE      TARGET
*SFR* 00000088H   DATA     BYTE      TCON
*SFR* 00000088H.1 DATA     BIT       TCON_IE0
*SFR* 00000088H.3 DATA     BIT       TCON_IE1
*SFR* 00000088H   DATA     BIT       TCON_IT0
*SFR* 00000088H.2 DATA     BIT       TCON_IT1
*SFR* 00000088H.5 DATA     BIT       TCON_TF0
*SFR* 00000088H.7 DATA     BIT       TCON_TF1
*SFR* 00000088H.4 DATA     BIT       TCON_TR0
*SFR* 00000088H.6 DATA     BIT       TCON_TR1
      00000022H   DATA     LONG      temp_scaled
*SFR* 0000008CH   DATA     BYTE      TH0
*SFR* 0000008DH   DATA     BYTE      TH1
      0100121EH   CODE     ---       TIMER00_0_enter_Mode2_from_DefaultMode
*DEL*:00000000H   CODE     ---       TIMER01_0_enter_DefaultMode_from_RESET
      010011A4H   CODE     ---       TIMER16_2_enter_DefaultMode_from_RESET
*DEL*:00000000H   CODE     ---       TIMER16_3_enter_Mode2_from_DefaultMode
      01001169H   CODE     ---       TIMER2_ISR
      01001211H   CODE     ---       TIMER_SETUP_0_enter_Mode2_from_DefaultMode
*SFR* 0000008AH   DATA     BYTE      TL0
*SFR* 0000008BH   DATA     BYTE      TL1
*SFR* 00000089H   DATA     BYTE      TMOD
*SFR* 000000CCH   DATA     WORD      TMR2
*SFR* 000000C8H   DATA     BYTE      TMR2CN
*SFR* 000000C8H.3 DATA     BIT       TMR2CN_T2SPLIT
*SFR* 000000C8H   DATA     BIT       TMR2CN_T2XCLK0
*SFR* 000000C8H.1 DATA     BIT       TMR2CN_T2XCLK1
*SFR* 000000C8H.4 DATA     BIT       TMR2CN_TF2CEN
*SFR* 000000C8H.7 DATA     BIT       TMR2CN_TF2H
*SFR* 000000C8H.6 DATA     BIT       TMR2CN_TF2L
*SFR* 000000C8H.5 DATA     BIT       TMR2CN_TF2LEN
*SFR* 000000C8H.2 DATA     BIT       TMR2CN_TR2
*SFR* 000000CDH   DATA     BYTE      TMR2H
*SFR* 000000CCH   DATA     BYTE      TMR2L
*SFR* 000000CAH   DATA     WORD      TMR2RL
*SFR* 000000CBH   DATA     BYTE      TMR2RLH
*SFR* 000000CAH   DATA     BYTE      TMR2RLL
*SFR* 00000094H   DATA     WORD      TMR3
LX51 LINKER/LOCATER V4.66.30.0                                                        05/16/2018  14:18:30  PAGE 11


*SFR* 00000091H   DATA     BYTE      TMR3CN
*SFR* 00000095H   DATA     BYTE      TMR3H
*SFR* 00000094H   DATA     BYTE      TMR3L
*SFR* 00000092H   DATA     WORD      TMR3RL
*SFR* 00000093H   DATA     BYTE      TMR3RLH
*SFR* 00000092H   DATA     BYTE      TMR3RLL
*SFR* 0000008EH   DATA     BYTE      TOFFH
*SFR* 0000008DH   DATA     BYTE      TOFFL
      01001256H   CODE     ---       UART_0_enter_DefaultMode_from_RESET
*DEL*:00000000H   CODE     ---       UART_Init
      0000002BH   DATA     LONG      v1
      0000002FH   DATA     LONG      v2
      00000033H   DATA     LONG      v3
      00000038H   DATA     LONG      v4
*SFR* 000000FFH   DATA     BYTE      VDM0CN
      01001246H   CODE     ---       VREG_0_enter_DefaultMode_from_RESET
      01001242H   CODE     ---       wakeUp
*SFR* 000000E1H   DATA     BYTE      XBR0
*SFR* 000000E2H   DATA     BYTE      XBR1
*SFR* 000000E3H   DATA     BYTE      XBR2



SYMBOL TABLE OF MODULE:  F99X-98X_SMBUS_MASTER.OMF.CRBUILD (F99X_SMBUS_MASTER)

      VALUE       REP       CLASS    TYPE      SYMBOL NAME
      ====================================================
      ---         MODULE    ---      ---       F99X_SMBUS_MASTER
      00000058H   PUBLIC    DATA     BYTE      SMB_REG_OUT
      00000020H.3 PUBLIC    BIT      BIT       SMB_RW
      02000000H   PUBLIC    XDATA    BYTE      reserved
      00000054H   PUBLIC    DATA     LONG      a
      00000053H   PUBLIC    DATA     BYTE      SMB_DATA_IN
      0000004FH   PUBLIC    DATA     DWORD     count_max
      0000004EH   PUBLIC    DATA     BYTE      START_SMB
      00000020H.2 PUBLIC    BIT      BIT       CO2_MODE
      0000004DH   PUBLIC    DATA     BYTE      TARGET
      00000049H   PUBLIC    DATA     DWORD     cc
      00000045H   PUBLIC    DATA     LONG      calc_hum
      00000044H   PUBLIC    DATA     BYTE      SMB_DATA_OUT
      00000042H   PUBLIC    DATA     WORD      DATA_CO2_IN
      0000003EH   PUBLIC    DATA     LONG      gas_range
      0000003CH   PUBLIC    DATA     WORD      count
      00000038H   PUBLIC    DATA     LONG      v4
      00000037H   PUBLIC    DATA     BYTE      RW_Reg
      00000033H   PUBLIC    DATA     LONG      v3
      0000002FH   PUBLIC    DATA     LONG      v2
      0000002BH   PUBLIC    DATA     LONG      v1
      00000026H   PUBLIC    DATA     ---       DATA_CO2_OUT
      00000020H.1 PUBLIC    BIT      BIT       ready
      00000022H   PUBLIC    DATA     LONG      temp_scaled
      00000020H.0 PUBLIC    BIT      BIT       SMB_BUSY
      00000021H   PUBLIC    DATA     BYTE      length
      01001169H   PUBLIC    CODE     ---       TIMER2_ISR
      01001204H   PUBLIC    CODE     ---       SMB_Read
      0100002EH   PUBLIC    CODE     ---       SMB_Write
      01000C4AH   PUBLIC    CODE     ---       main
      01001090H   PUBLIC    CODE     ---       BME680Init
      010011BDH   PUBLIC    CODE     ---       ADC
      01001242H   PUBLIC    CODE     ---       wakeUp
      0100123EH   PUBLIC    CODE     ---       sleepMode
      01000A97H   PUBLIC    CODE     ---       getHeat
LX51 LINKER/LOCATER V4.66.30.0                                                        05/16/2018  14:18:30  PAGE 12


      0100082CH   PUBLIC    CODE     ---       _getGas
      01000551H   PUBLIC    CODE     ---       _getHum
      01000DE0H   PUBLIC    CODE     ---       _getTemp
      010011F3H   PUBLIC    CODE     ---       _SMB_Write_Reg
      01000003H   PUBLIC    CODE     ---       _SMB_Read_Reg
      010010DBH   PUBLIC    CODE     ---       Read_CO2
      0100125AH   PUBLIC    CODE     ---       SiLabs_Startup
      000000A2H   SFRSYM    DATA     BYTE      SPI0CKR
      00000080H   SFRSYM    DATA     BYTE      P0
      000000D0H.2 SFRSYM    DATA     BIT       PSW_OV
      000000D8H.7 SFRSYM    DATA     BIT       PCA0CN_CF
      00000090H   SFRSYM    DATA     BYTE      P1
      000000F8H.4 SFRSYM    DATA     BIT       SPI0CN_RXOVRN
      000000A0H   SFRSYM    DATA     BYTE      P2
      00000097H   SFRSYM    DATA     BYTE      ADC0CF
      000000C8H   SFRSYM    DATA     BIT       TMR2CN_T2XCLK0
      000000C8H.1 SFRSYM    DATA     BIT       TMR2CN_T2XCLK1
      000000E8H.7 SFRSYM    DATA     BIT       ADC0CN_ADEN
      000000F9H   SFRSYM    DATA     WORD      PCA0
      000000AEH   SFRSYM    DATA     BYTE      RTC0KEY
      000000E6H   SFRSYM    DATA     BYTE      EIE1
      000000E7H   SFRSYM    DATA     BYTE      EIE2
      0000008FH   SFRSYM    DATA     BYTE      PSCTL
      000000E4H   SFRSYM    DATA     BYTE      IT01CF
      000000E3H   SFRSYM    DATA     BYTE      DERIVID
      000000AFH   SFRSYM    DATA     BYTE      CS0MD1
      000000A7H   SFRSYM    DATA     BYTE      SFRPAGE
      000000F3H   SFRSYM    DATA     BYTE      CS0MD2
      000000E8H   SFRSYM    DATA     BYTE      ADC0CN
      000000A4H   SFRSYM    DATA     BYTE      P0MDOUT
      000000F3H   SFRSYM    DATA     BYTE      CS0MD3
      000000D8H.6 SFRSYM    DATA     BIT       PCA0CN_CR
      000000A5H   SFRSYM    DATA     BYTE      P1MDOUT
      000000CBH   SFRSYM    DATA     BYTE      TMR2RLH
      000000A6H   SFRSYM    DATA     BYTE      P2MDOUT
      000000A8H   SFRSYM    DATA     BYTE      IE
      00000093H   SFRSYM    DATA     BYTE      TMR3RLH
      000000F6H   SFRSYM    DATA     BYTE      EIP1
      00000090H.4 SFRSYM    DATA     BIT       ADC_PIN
      000000F8H   SFRSYM    DATA     BIT       SPI0CN_SPIEN
      000000F7H   SFRSYM    DATA     BYTE      EIP2
      00000098H.2 SFRSYM    DATA     BIT       SCON0_RB8
      000000CAH   SFRSYM    DATA     BYTE      TMR2RLL
      000000FCH   SFRSYM    DATA     BYTE      PCA0CPH0
      00000092H   SFRSYM    DATA     BYTE      TMR3RLL
      000000EAH   SFRSYM    DATA     BYTE      PCA0CPH1
      00000098H.3 SFRSYM    DATA     BIT       SCON0_TB8
      000000F0H   SFRSYM    DATA     BIT       B_B0
      00000082H   SFRSYM    DATA     WORD      DP
      000000ECH   SFRSYM    DATA     BYTE      PCA0CPH2
      000000B0H.4 SFRSYM    DATA     BIT       CS0CN_CSBUSY
      000000F0H.1 SFRSYM    DATA     BIT       B_B1
      000000E8H.6 SFRSYM    DATA     BIT       ADC0CN_ADBMEN
      000000C3H   SFRSYM    DATA     WORD      ADC0GT
      000000F0H.2 SFRSYM    DATA     BIT       B_B2
      000000FBH   SFRSYM    DATA     BYTE      PCA0CPL0
      000000F0H.3 SFRSYM    DATA     BIT       B_B3
      000000D9H   SFRSYM    DATA     BYTE      PCA0MD
      000000DAH   SFRSYM    DATA     BYTE      PCA0CPM0
      000000E9H   SFRSYM    DATA     BYTE      PCA0CPL1
      000000D8H   SFRSYM    DATA     BYTE      PCA0CN
      000000F0H.4 SFRSYM    DATA     BIT       B_B4
LX51 LINKER/LOCATER V4.66.30.0                                                        05/16/2018  14:18:30  PAGE 13


      000000DBH   SFRSYM    DATA     BYTE      PCA0CPM1
      000000EBH   SFRSYM    DATA     BYTE      PCA0CPL2
      000000F0H.5 SFRSYM    DATA     BIT       B_B5
      000000DCH   SFRSYM    DATA     BYTE      PCA0CPM2
      000000B8H   SFRSYM    DATA     BYTE      IP
      000000BCH   SFRSYM    DATA     BYTE      ADC0TK
      000000F0H.6 SFRSYM    DATA     BIT       B_B6
      000000C5H   SFRSYM    DATA     WORD      ADC0LT
      00000098H.5 SFRSYM    DATA     BIT       SCON0_MCE
      000000F0H.7 SFRSYM    DATA     BIT       B_B7
      00000084H   SFRSYM    DATA     BYTE      CRC0CN
      000000E1H   SFRSYM    DATA     BYTE      XBR0
      000000C1H   SFRSYM    DATA     BYTE      SMB0CF
      000000E2H   SFRSYM    DATA     BYTE      XBR1
      000000D2H   SFRSYM    DATA     BYTE      CS0SCAN0
      000000E3H   SFRSYM    DATA     BYTE      XBR2
      000000D3H   SFRSYM    DATA     BYTE      CS0SCAN1
      00000096H   SFRSYM    DATA     BYTE      ADC0MX
      000000C0H.2 SFRSYM    DATA     BIT       SMB0CN_ARBLOST
      000000E0H   SFRSYM    DATA     BIT       ACC_ACC0
      000000D1H   SFRSYM    DATA     BYTE      REF0CN
      000000F8H.1 SFRSYM    DATA     BIT       SPI0CN_TXBMT
      000000E0H.1 SFRSYM    DATA     BIT       ACC_ACC1
      000000C9H   SFRSYM    DATA     BYTE      REG0CN
      00000085H   SFRSYM    DATA     BYTE      CRC0IN
      000000C0H   SFRSYM    DATA     BIT       SMB0CN_SI
      000000E0H.2 SFRSYM    DATA     BIT       ACC_ACC2
      000000E0H.3 SFRSYM    DATA     BIT       ACC_ACC3
      00000081H   SFRSYM    DATA     BYTE      SP
      000000E0H.4 SFRSYM    DATA     BIT       ACC_ACC4
      000000E0H.5 SFRSYM    DATA     BIT       ACC_ACC5
      000000C0H   SFRSYM    DATA     BYTE      SMB0CN
      000000E0H.6 SFRSYM    DATA     BIT       ACC_ACC6
      000000CCH   SFRSYM    DATA     WORD      TMR2
      000000E0H.7 SFRSYM    DATA     BIT       ACC_ACC7
      00000094H   SFRSYM    DATA     WORD      TMR3
      000000FFH   SFRSYM    DATA     BYTE      VDM0CN
      000000F1H   SFRSYM    DATA     BYTE      P0MDIN
      0000009DH   SFRSYM    DATA     BYTE      CPT0MD
      0000009BH   SFRSYM    DATA     BYTE      CPT0CN
      00000098H.4 SFRSYM    DATA     BIT       SCON0_REN
      000000F2H   SFRSYM    DATA     BYTE      P1MDIN
      000000FEH   SFRSYM    DATA     BYTE      CS0THH
      000000B5H   SFRSYM    DATA     BYTE      PMU0CF
      000000C8H.7 SFRSYM    DATA     BIT       TMR2CN_TF2H
      000000C8H.3 SFRSYM    DATA     BIT       TMR2CN_T2SPLIT
      000000C7H   SFRSYM    DATA     BYTE      P0MASK
      000000F8H   SFRSYM    DATA     BYTE      SPI0CN
      000000BFH   SFRSYM    DATA     BYTE      P1MASK
      000000FDH   SFRSYM    DATA     BYTE      CS0THL
      000000D0H.3 SFRSYM    DATA     BIT       PSW_RS0
      00000087H   SFRSYM    DATA     BYTE      PCON
      000000C8H.6 SFRSYM    DATA     BIT       TMR2CN_TF2L
      000000D0H.4 SFRSYM    DATA     BIT       PSW_RS1
      000000E8H   SFRSYM    DATA     BIT       ADC0CN_ADCM0
      000000B0H.1 SFRSYM    DATA     BIT       CS0CN_CSPME
      000000E8H.1 SFRSYM    DATA     BIT       ADC0CN_ADCM1
      000000E8H.2 SFRSYM    DATA     BIT       ADC0CN_ADCM2
      000000E8H.3 SFRSYM    DATA     BIT       ADC0CN_ADWINT
      00000089H   SFRSYM    DATA     BYTE      TMOD
      00000088H   SFRSYM    DATA     BYTE      TCON
      000000B5H   SFRSYM    DATA     BYTE      PMU0MD
LX51 LINKER/LOCATER V4.66.30.0                                                        05/16/2018  14:18:30  PAGE 14


      000000E8H.4 SFRSYM    DATA     BIT       ADC0CN_ADBUSY
      000000CEH   SFRSYM    DATA     BYTE      PMU0FL
      0000009CH   SFRSYM    DATA     BYTE      CRC0FLIP
      000000F8H.5 SFRSYM    DATA     BIT       SPI0CN_MODF
      000000D0H   SFRSYM    DATA     BIT       PSW_PARITY
      000000A8H.4 SFRSYM    DATA     BIT       IE_ES0
      000000A8H.1 SFRSYM    DATA     BIT       IE_ET0
      000000B0H.6 SFRSYM    DATA     BIT       CS0CN_CSEOS
      000000C8H   SFRSYM    DATA     BYTE      TMR2CN
      000000A8H.3 SFRSYM    DATA     BIT       IE_ET1
      00000091H   SFRSYM    DATA     BYTE      TMR3CN
      000000D4H   SFRSYM    DATA     BYTE      P0SKIP
      000000A8H.5 SFRSYM    DATA     BIT       IE_ET2
      000000D5H   SFRSYM    DATA     BYTE      P1SKIP
      000000A8H   SFRSYM    DATA     BIT       IE_EX0
      000000B0H.5 SFRSYM    DATA     BIT       CS0CN_CSINT
      000000E5H   SFRSYM    DATA     BYTE      FLWR
      000000C8H.4 SFRSYM    DATA     BIT       TMR2CN_TF2CEN
      000000A8H.2 SFRSYM    DATA     BIT       IE_EX1
      0000009FH   SFRSYM    DATA     BYTE      CPT0MX
      00000098H.7 SFRSYM    DATA     BIT       SCON0_SMODE
      000000B3H   SFRSYM    DATA     BYTE      OSCICL
      000000A9H   SFRSYM    DATA     BYTE      CLKSEL
      000000B2H   SFRSYM    DATA     BYTE      OSCICN
      000000F0H   SFRSYM    DATA     BYTE      B
      000000BEH   SFRSYM    DATA     BYTE      ADC0H
      00000090H.5 SFRSYM    DATA     BIT       CO2_ON
      000000F8H.7 SFRSYM    DATA     BIT       SPI0CN_SPIF
      0000009EH   SFRSYM    DATA     BYTE      CRC0AUTO
      000000B0H.3 SFRSYM    DATA     BIT       CS0CN_CSCMPEN
      000000CAH   SFRSYM    DATA     WORD      TMR2RL
      000000BDH   SFRSYM    DATA     BYTE      ADC0L
      000000C8H.5 SFRSYM    DATA     BIT       TMR2CN_TF2LEN
      000000F8H.6 SFRSYM    DATA     BIT       SPI0CN_WCOL
      00000092H   SFRSYM    DATA     WORD      TMR3RL
      000000F8H.2 SFRSYM    DATA     BIT       SPI0CN_NSSMD0
      000000E0H   SFRSYM    DATA     BYTE      ACC
      000000F8H.3 SFRSYM    DATA     BIT       SPI0CN_NSSMD1
      000000FBH   SFRSYM    DATA     WORD      PCA0CP0
      000000E9H   SFRSYM    DATA     WORD      PCA0CP1
      000000EBH   SFRSYM    DATA     WORD      PCA0CP2
      0000008CH   SFRSYM    DATA     BYTE      TH0
      000000B8H.4 SFRSYM    DATA     BIT       IP_PS0
      0000008DH   SFRSYM    DATA     BYTE      TH1
      000000FAH   SFRSYM    DATA     BYTE      PCA0H
      000000B8H.1 SFRSYM    DATA     BIT       IP_PT0
      000000B8H.3 SFRSYM    DATA     BIT       IP_PT1
      000000B8H.5 SFRSYM    DATA     BIT       IP_PT2
      0000008AH   SFRSYM    DATA     BYTE      TL0
      000000B1H   SFRSYM    DATA     BYTE      OSCXCN
      000000AAH   SFRSYM    DATA     BYTE      CS0CF
      000000D0H.5 SFRSYM    DATA     BIT       PSW_F0
      000000A8H.6 SFRSYM    DATA     BIT       IE_ESPI0
      0000008BH   SFRSYM    DATA     BYTE      TL1
      000000F9H   SFRSYM    DATA     BYTE      PCA0L
      000000D0H.1 SFRSYM    DATA     BIT       PSW_F1
      00000080H   SFRSYM    DATA     BIT       P0_B0
      000000B8H   SFRSYM    DATA     BIT       IP_PX0
      00000090H   SFRSYM    DATA     BIT       P1_B0
      00000080H.1 SFRSYM    DATA     BIT       P0_B1
      000000B8H.2 SFRSYM    DATA     BIT       IP_PX1
      000000EEH   SFRSYM    DATA     BYTE      CS0DH
LX51 LINKER/LOCATER V4.66.30.0                                                        05/16/2018  14:18:30  PAGE 15


      00000088H.1 SFRSYM    DATA     BIT       TCON_IE0
      000000C0H.7 SFRSYM    DATA     BIT       SMB0CN_MASTER
      00000090H.1 SFRSYM    DATA     BIT       P1_B1
      00000080H.2 SFRSYM    DATA     BIT       P0_B2
      00000088H.3 SFRSYM    DATA     BIT       TCON_IE1
      000000C0H.1 SFRSYM    DATA     BIT       SMB0CN_ACK
      00000090H.2 SFRSYM    DATA     BIT       P1_B2
      00000080H.3 SFRSYM    DATA     BIT       P0_B3
      00000090H.3 SFRSYM    DATA     BIT       P1_B3
      00000080H.4 SFRSYM    DATA     BIT       P0_B4
      00000090H.4 SFRSYM    DATA     BIT       P1_B4
      00000080H.5 SFRSYM    DATA     BIT       P0_B5
      000000EDH   SFRSYM    DATA     BYTE      CS0DL
      00000080H   SFRSYM    DATA     BIT       SDA
      00000090H.5 SFRSYM    DATA     BIT       P1_B5
      00000080H.6 SFRSYM    DATA     BIT       P0_B6
      000000B0H   SFRSYM    DATA     BYTE      CS0CN
      000000C0H.6 SFRSYM    DATA     BIT       SMB0CN_TXMODE
      00000090H.6 SFRSYM    DATA     BIT       P1_B6
      00000080H.7 SFRSYM    DATA     BIT       P0_B7
      00000090H.7 SFRSYM    DATA     BIT       P1_B7
      000000A0H.7 SFRSYM    DATA     BIT       P2_B7
      00000083H   SFRSYM    DATA     BYTE      DPH
      000000E8H.5 SFRSYM    DATA     BIT       ADC0CN_ADINT
      000000C4H   SFRSYM    DATA     BYTE      ADC0GTH
      000000D0H.6 SFRSYM    DATA     BIT       PSW_AC
      000000DEH   SFRSYM    DATA     BYTE      CS0SE
      00000088H.5 SFRSYM    DATA     BIT       TCON_TF0
      00000098H   SFRSYM    DATA     BIT       SCON0_RI
      00000082H   SFRSYM    DATA     BYTE      DPL
      00000088H.7 SFRSYM    DATA     BIT       TCON_TF1
      00000099H   SFRSYM    DATA     BYTE      SBUF0
      000000B9H   SFRSYM    DATA     BYTE      IREF0CF
      000000C3H   SFRSYM    DATA     BYTE      ADC0GTL
      00000080H.1 SFRSYM    DATA     BIT       SCL
      00000098H.1 SFRSYM    DATA     BIT       SCON0_TI
      000000C6H   SFRSYM    DATA     BYTE      ADC0LTH
      00000088H   SFRSYM    DATA     BIT       TCON_IT0
      000000B0H.7 SFRSYM    DATA     BIT       CS0CN_CSEN
      000000EFH   SFRSYM    DATA     BYTE      RSTSRC
      000000D7H   SFRSYM    DATA     BYTE      P0MAT
      00000086H   SFRSYM    DATA     BYTE      CRC0DAT
      00000088H.2 SFRSYM    DATA     BIT       TCON_IT1
      00000098H   SFRSYM    DATA     BYTE      SCON0
      000000CFH   SFRSYM    DATA     BYTE      P1MAT
      000000DEH   SFRSYM    DATA     BYTE      CS0PM
      000000F5H   SFRSYM    DATA     BYTE      SMB0ADM
      000000C5H   SFRSYM    DATA     BYTE      ADC0LTL
      000000B8H.6 SFRSYM    DATA     BIT       IP_PSPI0
      000000D6H   SFRSYM    DATA     BYTE      IREF0CN
      000000F4H   SFRSYM    DATA     BYTE      SMB0ADR
      00000088H.4 SFRSYM    DATA     BIT       TCON_TR0
      000000ABH   SFRSYM    DATA     BYTE      CS0MX
      00000088H.6 SFRSYM    DATA     BIT       TCON_TR1
      000000C2H   SFRSYM    DATA     BYTE      SMB0DAT
      00000099H   SFRSYM    DATA     BYTE      P0DRV
      000000DDH   SFRSYM    DATA     BYTE      CS0SS
      000000C0H.5 SFRSYM    DATA     BIT       SMB0CN_STA
      000000CDH   SFRSYM    DATA     BYTE      TMR2H
      000000A1H   SFRSYM    DATA     BYTE      SPI0CFG
      0000009BH   SFRSYM    DATA     BYTE      P1DRV
      00000095H   SFRSYM    DATA     BYTE      TMR3H
LX51 LINKER/LOCATER V4.66.30.0                                                        05/16/2018  14:18:30  PAGE 16


      0000009DH   SFRSYM    DATA     BYTE      P2DRV
      0000009AH   SFRSYM    DATA     BYTE      CRC0CNT
      0000008EH   SFRSYM    DATA     BYTE      CKCON
      00000090H.3 SFRSYM    DATA     BIT       BME680_ON
      000000C8H.2 SFRSYM    DATA     BIT       TMR2CN_TR2
      000000CCH   SFRSYM    DATA     BYTE      TMR2L
      000000ACH   SFRSYM    DATA     BYTE      RTC0ADR
      00000094H   SFRSYM    DATA     BYTE      TMR3L
      000000BBH   SFRSYM    DATA     BYTE      ADC0PWR
      000000D8H   SFRSYM    DATA     BIT       PCA0CN_CCF0
      000000A8H.7 SFRSYM    DATA     BIT       IE_EA
      000000ADH   SFRSYM    DATA     BYTE      RTC0DAT
      000000D8H.1 SFRSYM    DATA     BIT       PCA0CN_CCF1
      000000B6H   SFRSYM    DATA     BYTE      FLSCL
      000000D8H.2 SFRSYM    DATA     BIT       PCA0CN_CCF2
      00000090H.2 SFRSYM    DATA     BIT       LUX_ON
      000000D0H.7 SFRSYM    DATA     BIT       PSW_CY
      000000B0H   SFRSYM    DATA     BIT       CS0CN_CSCMPF
      000000A3H   SFRSYM    DATA     BYTE      SPI0DAT
      000000BDH   SFRSYM    DATA     WORD      ADC0
      0000008EH   SFRSYM    DATA     BYTE      TOFFH
      000000C0H.3 SFRSYM    DATA     BIT       SMB0CN_ACKRQ
      000000D0H   SFRSYM    DATA     BYTE      PSW
      000000DFH   SFRSYM    DATA     BYTE      PCA0PWM
      000000E2H   SFRSYM    DATA     BYTE      REVID
      000000C0H.4 SFRSYM    DATA     BIT       SMB0CN_STO
      0000008DH   SFRSYM    DATA     BYTE      TOFFL
      000000B7H   SFRSYM    DATA     BYTE      FLKEY
      000000BAH   SFRSYM    DATA     BYTE      ADC0AC

      0100125AH   BLOCK     CODE     ---       LVL=0
      0100125AH   LINE      CODE     ---       #91
      0100125AH   LINE      CODE     ---       #92
      0100125AH   LINE      CODE     ---       #94
      ---         BLOCKEND  ---      ---       LVL=0
      00000007H   SYMBOL    DATA     CHAR      c

      010010DBH   BLOCK     CODE     ---       LVL=0
      010010DBH   BLOCK     CODE     NEAR LAB  LVL=1
      00000059H   SYMBOL    DATA     WORD      i
      ---         BLOCKEND  ---      ---       LVL=1
      010010DBH   LINE      CODE     ---       #145
      010010DBH   LINE      CODE     ---       #146
      010010DBH   LINE      CODE     ---       #147
      010010E0H   LINE      CODE     ---       #148
      010010E2H   LINE      CODE     ---       #151
      010010E2H   LINE      CODE     ---       #152
      010010E2H   LINE      CODE     ---       #153
      010010EAH   LINE      CODE     ---       #154
      010010ECH   LINE      CODE     ---       #155
      010010F4H   LINE      CODE     ---       #156
      010010FDH   LINE      CODE     ---       #158
      010010FFH   LINE      CODE     ---       #159
      01001102H   LINE      CODE     ---       #160
      01001105H   LINE      CODE     ---       #161
      01001108H   LINE      CODE     ---       #162
      0100110BH   LINE      CODE     ---       #163
      0100110DH   LINE      CODE     ---       #164
      01001110H   LINE      CODE     ---       #165
      01001113H   LINE      CODE     ---       #166
      01001116H   LINE      CODE     ---       #167
      01001119H   LINE      CODE     ---       #168
LX51 LINKER/LOCATER V4.66.30.0                                                        05/16/2018  14:18:30  PAGE 17


      0100111BH   LINE      CODE     ---       #171
      01001124H   LINE      CODE     ---       #173
      ---         BLOCKEND  ---      ---       LVL=0

      01000003H   BLOCK     CODE     ---       LVL=0
      0000007FH   SYMBOL    DATA     BYTE      Addr
      00000005H   SYMBOL    DATA     BYTE      Reg
      01000003H   LINE      CODE     ---       #176
      01000005H   LINE      CODE     ---       #177
      01000005H   LINE      CODE     ---       #178
      01000007H   LINE      CODE     ---       #179
      0100000AH   LINE      CODE     ---       #180
      0100000DH   LINE      CODE     ---       #181
      0100000FH   LINE      CODE     ---       #182
      01000012H   LINE      CODE     ---       #183
      01000015H   LINE      CODE     ---       #184
      01000018H   LINE      CODE     ---       #185
      0100001EH   LINE      CODE     ---       #186
      01000021H   LINE      CODE     ---       #187
      01000023H   LINE      CODE     ---       #189
      ---         BLOCKEND  ---      ---       LVL=0

      010011F3H   BLOCK     CODE     ---       LVL=0
      00000007H   SYMBOL    DATA     BYTE      Addr
      00000005H   SYMBOL    DATA     BYTE      Reg
      00000003H   SYMBOL    DATA     BYTE      Dat
      010011F3H   LINE      CODE     ---       #191
      010011F3H   LINE      CODE     ---       #192
      010011F3H   LINE      CODE     ---       #193
      010011F5H   LINE      CODE     ---       #194
      010011F8H   LINE      CODE     ---       #195
      010011FAH   LINE      CODE     ---       #196
      010011FDH   LINE      CODE     ---       #197
      010011FFH   LINE      CODE     ---       #198
      01001201H   LINE      CODE     ---       #199
      ---         BLOCKEND  ---      ---       LVL=0

      01000DE0H   BLOCK     CODE     ---       LVL=0
      00000004H   SYMBOL    DATA     WORD      adc
      01000DE4H   BLOCK     CODE     NEAR LAB  LVL=1
      00000059H   SYMBOL    DATA     LONG      t_fine
      0000005DH   SYMBOL    DATA     LONG      calc_result
      00000061H   SYMBOL    DATA     LONG      var1
      00000065H   SYMBOL    DATA     LONG      var2
      00000069H   SYMBOL    DATA     LONG      var3
      00000006H   SYMBOL    DATA     WORD      par_t1
      0000006DH   SYMBOL    DATA     INT       par_t2
      0000006FH   SYMBOL    DATA     CHAR      par_t3
      ---         BLOCKEND  ---      ---       LVL=1
      01000DE0H   LINE      CODE     ---       #202
      01000DE4H   LINE      CODE     ---       #203
      01000DE4H   LINE      CODE     ---       #209
      01000DE8H   LINE      CODE     ---       #210
      01000DEEH   LINE      CODE     ---       #211
      01000DF1H   LINE      CODE     ---       #212
      01000E11H   LINE      CODE     ---       #213
      01000E33H   LINE      CODE     ---       #214
      01000E6DH   LINE      CODE     ---       #215
      01000E9FH   LINE      CODE     ---       #216
      01000EB7H   LINE      CODE     ---       #217
      01000EE2H   LINE      CODE     ---       #218
      01000EFBH   LINE      CODE     ---       #219
LX51 LINKER/LOCATER V4.66.30.0                                                        05/16/2018  14:18:30  PAGE 18


      01000EFBH   LINE      CODE     ---       #220
      ---         BLOCKEND  ---      ---       LVL=0

      01000551H   BLOCK     CODE     ---       LVL=0
      00000059H   SYMBOL    DATA     WORD      adc
      01000555H   BLOCK     CODE     NEAR LAB  LVL=1
      0000005BH   SYMBOL    DATA     LONG      var3
      0000005FH   SYMBOL    DATA     LONG      var4
      00000063H   SYMBOL    DATA     LONG      var5
      00000067H   SYMBOL    DATA     LONG      var6
      0000006BH   SYMBOL    DATA     WORD      par_h1
      0000006DH   SYMBOL    DATA     WORD      par_h2
      0000006FH   SYMBOL    DATA     CHAR      par_h3
      00000070H   SYMBOL    DATA     CHAR      par_h4
      00000071H   SYMBOL    DATA     CHAR      par_h5
      00000072H   SYMBOL    DATA     BYTE      par_h6
      00000073H   SYMBOL    DATA     CHAR      par_h7
      ---         BLOCKEND  ---      ---       LVL=1
      01000551H   LINE      CODE     ---       #221
      01000555H   LINE      CODE     ---       #222
      01000555H   LINE      CODE     ---       #228
      0100057CH   LINE      CODE     ---       #229
      010005AEH   LINE      CODE     ---       #230
      010005B7H   LINE      CODE     ---       #231
      010005C0H   LINE      CODE     ---       #232
      010005C9H   LINE      CODE     ---       #233
      010005D2H   LINE      CODE     ---       #234
      010005DBH   LINE      CODE     ---       #238
      01000641H   LINE      CODE     ---       #242
      010006D4H   LINE      CODE     ---       #245
      010006EFH   LINE      CODE     ---       #247
      01000702H   LINE      CODE     ---       #249
      0100073CH   LINE      CODE     ---       #251
      01000776H   LINE      CODE     ---       #253
      01000796H   LINE      CODE     ---       #255
      010007C6H   LINE      CODE     ---       #256
      010007D6H   LINE      CODE     ---       #257
      010007ECH   LINE      CODE     ---       #258
      010007FAH   LINE      CODE     ---       #259
      01000806H   LINE      CODE     ---       #260
      0100080FH   LINE      CODE     ---       #261
      01000829H   LINE      CODE     ---       #264
      0100082BH   LINE      CODE     ---       #266
      ---         BLOCKEND  ---      ---       LVL=0

      0100082CH   BLOCK     CODE     ---       LVL=0
      00000059H   SYMBOL    DATA     WORD      gas_res_adc
      01000830H   BLOCK     CODE     NEAR LAB  LVL=1
      0000005BH   SYMBOL    DATA     FLOAT     value1
      0000005FH   SYMBOL    DATA     FLOAT     value2
      00000063H   SYMBOL    DATA     FLOAT     var1
      00000067H   SYMBOL    DATA     FLOAT     var2
      0000006BH   SYMBOL    DATA     FLOAT     var3
      0000006FH   SYMBOL    DATA     WORD      range_sw_err
      00000071H   SYMBOL    DATA     LONG      calc_gas_res
      ---         BLOCKEND  ---      ---       LVL=1
      0100082CH   LINE      CODE     ---       #268
      01000830H   LINE      CODE     ---       #269
      01000830H   LINE      CODE     ---       #277
      0100084BH   LINE      CODE     ---       #285
      0100085FH   LINE      CODE     ---       #289
      01000880H   LINE      CODE     ---       #290
LX51 LINKER/LOCATER V4.66.30.0                                                        05/16/2018  14:18:30  PAGE 19


      01000880H   LINE      CODE     ---       #291
      01000888H   LINE      CODE     ---       #292
      0100089EH   LINE      CODE     ---       #293
      0100089EH   LINE      CODE     ---       #294
      010008A7H   LINE      CODE     ---       #295
      010008BDH   LINE      CODE     ---       #296
      010008BDH   LINE      CODE     ---       #297
      010008C9H   LINE      CODE     ---       #298
      010008DFH   LINE      CODE     ---       #299
      010008DFH   LINE      CODE     ---       #300
      010008E8H   LINE      CODE     ---       #301
      010008EAH   LINE      CODE     ---       #302
      010008F3H   LINE      CODE     ---       #303
      010008F3H   LINE      CODE     ---       #305
      01000907H   LINE      CODE     ---       #306
      01000907H   LINE      CODE     ---       #307
      01000913H   LINE      CODE     ---       #308
      01000929H   LINE      CODE     ---       #309
      01000929H   LINE      CODE     ---       #310
      01000934H   LINE      CODE     ---       #311
      0100094AH   LINE      CODE     ---       #312
      0100094AH   LINE      CODE     ---       #313
      01000956H   LINE      CODE     ---       #314
      0100096CH   LINE      CODE     ---       #315
      0100096CH   LINE      CODE     ---       #316
      01000978H   LINE      CODE     ---       #317
      0100097AH   LINE      CODE     ---       #318
      01000983H   LINE      CODE     ---       #319
      01000983H   LINE      CODE     ---       #320
      010009A8H   LINE      CODE     ---       #321
      010009D7H   LINE      CODE     ---       #322
      010009FBH   LINE      CODE     ---       #323
      01000A8EH   LINE      CODE     ---       #327
      01000A96H   LINE      CODE     ---       #329
      ---         BLOCKEND  ---      ---       LVL=0

      01000A97H   BLOCK     CODE     ---       LVL=0
      01000A97H   BLOCK     CODE     NEAR LAB  LVL=1
      0000005DH   SYMBOL    DATA     LONG      var1
      00000061H   SYMBOL    DATA     LONG      var2
      00000065H   SYMBOL    DATA     LONG      var3
      00000069H   SYMBOL    DATA     LONG      var4
      0000006DH   SYMBOL    DATA     LONG      var5
      00000071H   SYMBOL    DATA     WORD      res_heat_range
      00000073H   SYMBOL    DATA     CHAR      res_heat_val
      00000074H   SYMBOL    DATA     BYTE      par_g1
      00000075H   SYMBOL    DATA     WORD      par_g2
      00000077H   SYMBOL    DATA     BYTE      par_g3
      00000078H   SYMBOL    DATA     BYTE      heatr_res
      00000079H   SYMBOL    DATA     LONG      heatr_res_x100
      0000007DH   SYMBOL    DATA     INT       temp
      ---         BLOCKEND  ---      ---       LVL=1
      01000A97H   LINE      CODE     ---       #331
      01000A97H   LINE      CODE     ---       #332
      01000A97H   LINE      CODE     ---       #340
      01000AB2H   LINE      CODE     ---       #341
      01000ABBH   LINE      CODE     ---       #342
      01000ABEH   LINE      CODE     ---       #343
      01000AC4H   LINE      CODE     ---       #344
      01000AC7H   LINE      CODE     ---       #349
      01000ACDH   LINE      CODE     ---       #353
      01000ADAH   LINE      CODE     ---       #354
LX51 LINKER/LOCATER V4.66.30.0                                                        05/16/2018  14:18:30  PAGE 20


      01000AE0H   LINE      CODE     ---       #355
      01000AEEH   LINE      CODE     ---       #356
      01000AF8H   LINE      CODE     ---       #357
      01000B24H   LINE      CODE     ---       #358
      01000B8CH   LINE      CODE     ---       #359
      01000BB1H   LINE      CODE     ---       #360
      01000BD2H   LINE      CODE     ---       #361
      01000BF7H   LINE      CODE     ---       #362
      01000C2BH   LINE      CODE     ---       #363
      01000C47H   LINE      CODE     ---       #365
      01000C49H   LINE      CODE     ---       #366
      ---         BLOCKEND  ---      ---       LVL=0

      0100123EH   BLOCK     CODE     ---       LVL=0
      0100123EH   LINE      CODE     ---       #368
      0100123EH   LINE      CODE     ---       #369
      0100123EH   LINE      CODE     ---       #370
      01001241H   LINE      CODE     ---       #372
      ---         BLOCKEND  ---      ---       LVL=0

      01001242H   BLOCK     CODE     ---       LVL=0
      01001242H   LINE      CODE     ---       #374
      01001242H   LINE      CODE     ---       #375
      01001242H   LINE      CODE     ---       #376
      01001245H   LINE      CODE     ---       #378
      ---         BLOCKEND  ---      ---       LVL=0

      010011BDH   BLOCK     CODE     ---       LVL=0
      010011BDH   LINE      CODE     ---       #380
      010011BDH   LINE      CODE     ---       #381
      010011BDH   LINE      CODE     ---       #382
      010011C0H   LINE      CODE     ---       #384
      010011C3H   LINE      CODE     ---       #385
      010011C6H   LINE      CODE     ---       #387
      010011C9H   LINE      CODE     ---       #389
      010011CCH   LINE      CODE     ---       #390
      010011CEH   LINE      CODE     ---       #391
      ---         BLOCKEND  ---      ---       LVL=0

      01001090H   BLOCK     CODE     ---       LVL=0
      01001090H   BLOCK     CODE     NEAR LAB  LVL=1
      00000059H   SYMBOL    DATA     DWORD     i
      ---         BLOCKEND  ---      ---       LVL=1
      01001090H   LINE      CODE     ---       #394
      01001090H   LINE      CODE     ---       #395
      01001090H   LINE      CODE     ---       #397
      01001099H   LINE      CODE     ---       #398
      010010A2H   LINE      CODE     ---       #399
      010010ABH   LINE      CODE     ---       #400
      010010B4H   LINE      CODE     ---       #401
      010010BDH   LINE      CODE     ---       #402
      010010C9H   LINE      CODE     ---       #403
      010010D2H   LINE      CODE     ---       #404
      ---         BLOCKEND  ---      ---       LVL=0

      01000C4AH   BLOCK     CODE     ---       LVL=0
      01000C4AH   BLOCK     CODE     NEAR LAB  LVL=1
      00000006H   SYMBOL    DATA     WORD      i
      ---         BLOCKEND  ---      ---       LVL=1
      01000C4AH   LINE      CODE     ---       #408
      01000C4AH   LINE      CODE     ---       #409
      01000C4AH   LINE      CODE     ---       #411
LX51 LINKER/LOCATER V4.66.30.0                                                        05/16/2018  14:18:30  PAGE 21


      01000C4DH   LINE      CODE     ---       #413
      01000C50H   LINE      CODE     ---       #414
      01000C50H   LINE      CODE     ---       #417
      01000C53H   LINE      CODE     ---       #418
      01000C55H   LINE      CODE     ---       #419
      01000C62H   LINE      CODE     ---       #420
      01000C64H   LINE      CODE     ---       #421
      01000C67H   LINE      CODE     ---       #423
      01000C75H   LINE      CODE     ---       #424
      01000C78H   LINE      CODE     ---       #425
      01000C7AH   LINE      CODE     ---       #426
      01000C7DH   LINE      CODE     ---       #428
      01000C80H   LINE      CODE     ---       #429
      01000C82H   LINE      CODE     ---       #430
      01000C84H   LINE      CODE     ---       #431
      01000C86H   LINE      CODE     ---       #432
      01000C86H   LINE      CODE     ---       #433
      01000C86H   LINE      CODE     ---       #434
      01000C8EH   LINE      CODE     ---       #435
      01000C96H   LINE      CODE     ---       #436
      01000C96H   LINE      CODE     ---       #437
      01000C98H   LINE      CODE     ---       #438
      01000CA6H   LINE      CODE     ---       #439
      01000CA6H   LINE      CODE     ---       #440
      01000CA8H   LINE      CODE     ---       #441
      01000CAAH   LINE      CODE     ---       #442
      01000CADH   LINE      CODE     ---       #443
      01000CB8H   LINE      CODE     ---       #444
      01000CE6H   LINE      CODE     ---       #445
      01000D11H   LINE      CODE     ---       #446
      01000D13H   LINE      CODE     ---       #447
      01000D38H   LINE      CODE     ---       #448
      01000D38H   LINE      CODE     ---       #449
      01000D3AH   LINE      CODE     ---       #450
      01000D3DH   LINE      CODE     ---       #451
      01000D48H   LINE      CODE     ---       #452
      01000D82H   LINE      CODE     ---       #453
      01000D84H   LINE      CODE     ---       #454
      01000D84H   LINE      CODE     ---       #456
      01000D99H   LINE      CODE     ---       #457
      01000D99H   LINE      CODE     ---       #458
      01000DA5H   LINE      CODE     ---       #459
      01000DA5H   LINE      CODE     ---       #460
      01000DA5H   LINE      CODE     ---       #463
      01000DA5H   LINE      CODE     ---       #464
      01000DA7H   LINE      CODE     ---       #465
      01000DAFH   LINE      CODE     ---       #466
      01000DD8H   LINE      CODE     ---       #467
      01000DD8H   LINE      CODE     ---       #468
      01000DDDH   LINE      CODE     ---       #469
      01000DDDH   LINE      CODE     ---       #471
      ---         BLOCKEND  ---      ---       LVL=0

      0100002EH   BLOCK     CODE     ---       LVL=0
      0100002EH   LINE      CODE     ---       #476
      0100002EH   LINE      CODE     ---       #477
      0100002EH   LINE      CODE     ---       #478
      01000031H   LINE      CODE     ---       #479
      01000033H   LINE      CODE     ---       #480
      01000035H   LINE      CODE     ---       #481
      01000037H   LINE      CODE     ---       #482
      0100003AH   LINE      CODE     ---       #484
LX51 LINKER/LOCATER V4.66.30.0                                                        05/16/2018  14:18:30  PAGE 22


      ---         BLOCKEND  ---      ---       LVL=0

      01001204H   BLOCK     CODE     ---       LVL=0
      01001204H   LINE      CODE     ---       #485
      01001204H   LINE      CODE     ---       #486
      01001204H   LINE      CODE     ---       #487
      01001207H   LINE      CODE     ---       #488
      01001209H   LINE      CODE     ---       #489
      0100120BH   LINE      CODE     ---       #490
      0100120DH   LINE      CODE     ---       #491
      01001210H   LINE      CODE     ---       #492
      ---         BLOCKEND  ---      ---       LVL=0

      01001169H   BLOCK     CODE     ---       LVL=0
      01001169H   LINE      CODE     ---       #494
      0100116BH   LINE      CODE     ---       #496
      0100116EH   LINE      CODE     ---       #497
      0100117AH   LINE      CODE     ---       #498
      01001182H   LINE      CODE     ---       #499
      01001184H   LINE      CODE     ---       #500
      01001187H   LINE      CODE     ---       #502
      ---         BLOCKEND  ---      ---       LVL=0

      ---         MODULE    ---      ---       INITDEVICE
      010011E1H   PUBLIC    CODE     ---       enter_Mode2_from_DefaultMode
      010011A4H   PUBLIC    CODE     ---       TIMER16_2_enter_DefaultMode_from_RESET
      01001256H   PUBLIC    CODE     ---       UART_0_enter_DefaultMode_from_RESET
      01001237H   PUBLIC    CODE     ---       INTERRUPT_0_enter_Mode2_from_DefaultMode
      01001252H   PUBLIC    CODE     ---       SMBUS_0_enter_Mode2_from_DefaultMode
      01001211H   PUBLIC    CODE     ---       TIMER_SETUP_0_enter_Mode2_from_DefaultMode
      0100121EH   PUBLIC    CODE     ---       TIMER00_0_enter_Mode2_from_DefaultMode
      01001230H   PUBLIC    CODE     ---       PBCFG_0_enter_Mode2_from_DefaultMode
      01001229H   PUBLIC    CODE     ---       PORTS_1_enter_Mode2_from_DefaultMode
      0100124EH   PUBLIC    CODE     ---       CLOCK_0_enter_DefaultMode_from_RESET
      0100124AH   PUBLIC    CODE     ---       HFOSC_0_enter_DefaultMode_from_RESET
      01001246H   PUBLIC    CODE     ---       VREG_0_enter_DefaultMode_from_RESET
      01000024H   PUBLIC    CODE     ---       PCA_0_enter_DefaultMode_from_RESET
      010011CFH   PUBLIC    CODE     ---       enter_DefaultMode_from_RESET
      000000A2H   SFRSYM    DATA     BYTE      SPI0CKR
      00000080H   SFRSYM    DATA     BYTE      P0
      000000D0H.2 SFRSYM    DATA     BIT       PSW_OV
      000000D8H.7 SFRSYM    DATA     BIT       PCA0CN_CF
      00000090H   SFRSYM    DATA     BYTE      P1
      000000F8H.4 SFRSYM    DATA     BIT       SPI0CN_RXOVRN
      000000A0H   SFRSYM    DATA     BYTE      P2
      00000097H   SFRSYM    DATA     BYTE      ADC0CF
      000000C8H   SFRSYM    DATA     BIT       TMR2CN_T2XCLK0
      000000C8H.1 SFRSYM    DATA     BIT       TMR2CN_T2XCLK1
      000000E8H.7 SFRSYM    DATA     BIT       ADC0CN_ADEN
      000000F9H   SFRSYM    DATA     WORD      PCA0
      000000AEH   SFRSYM    DATA     BYTE      RTC0KEY
      000000E6H   SFRSYM    DATA     BYTE      EIE1
      000000E7H   SFRSYM    DATA     BYTE      EIE2
      0000008FH   SFRSYM    DATA     BYTE      PSCTL
      000000E4H   SFRSYM    DATA     BYTE      IT01CF
      000000E3H   SFRSYM    DATA     BYTE      DERIVID
      000000AFH   SFRSYM    DATA     BYTE      CS0MD1
      000000A7H   SFRSYM    DATA     BYTE      SFRPAGE
      000000F3H   SFRSYM    DATA     BYTE      CS0MD2
      000000E8H   SFRSYM    DATA     BYTE      ADC0CN
      000000A4H   SFRSYM    DATA     BYTE      P0MDOUT
      000000F3H   SFRSYM    DATA     BYTE      CS0MD3
LX51 LINKER/LOCATER V4.66.30.0                                                        05/16/2018  14:18:30  PAGE 23


      000000D8H.6 SFRSYM    DATA     BIT       PCA0CN_CR
      000000A5H   SFRSYM    DATA     BYTE      P1MDOUT
      000000CBH   SFRSYM    DATA     BYTE      TMR2RLH
      000000A6H   SFRSYM    DATA     BYTE      P2MDOUT
      000000A8H   SFRSYM    DATA     BYTE      IE
      00000093H   SFRSYM    DATA     BYTE      TMR3RLH
      000000F6H   SFRSYM    DATA     BYTE      EIP1
      000000F8H   SFRSYM    DATA     BIT       SPI0CN_SPIEN
      000000F7H   SFRSYM    DATA     BYTE      EIP2
      00000098H.2 SFRSYM    DATA     BIT       SCON0_RB8
      000000CAH   SFRSYM    DATA     BYTE      TMR2RLL
      000000FCH   SFRSYM    DATA     BYTE      PCA0CPH0
      00000092H   SFRSYM    DATA     BYTE      TMR3RLL
      000000EAH   SFRSYM    DATA     BYTE      PCA0CPH1
      00000098H.3 SFRSYM    DATA     BIT       SCON0_TB8
      000000F0H   SFRSYM    DATA     BIT       B_B0
      00000082H   SFRSYM    DATA     WORD      DP
      000000ECH   SFRSYM    DATA     BYTE      PCA0CPH2
      000000B0H.4 SFRSYM    DATA     BIT       CS0CN_CSBUSY
      000000F0H.1 SFRSYM    DATA     BIT       B_B1
      000000E8H.6 SFRSYM    DATA     BIT       ADC0CN_ADBMEN
      000000C3H   SFRSYM    DATA     WORD      ADC0GT
      000000F0H.2 SFRSYM    DATA     BIT       B_B2
      000000FBH   SFRSYM    DATA     BYTE      PCA0CPL0
      000000F0H.3 SFRSYM    DATA     BIT       B_B3
      000000D9H   SFRSYM    DATA     BYTE      PCA0MD
      000000DAH   SFRSYM    DATA     BYTE      PCA0CPM0
      000000E9H   SFRSYM    DATA     BYTE      PCA0CPL1
      000000D8H   SFRSYM    DATA     BYTE      PCA0CN
      000000F0H.4 SFRSYM    DATA     BIT       B_B4
      000000DBH   SFRSYM    DATA     BYTE      PCA0CPM1
      000000EBH   SFRSYM    DATA     BYTE      PCA0CPL2
      000000F0H.5 SFRSYM    DATA     BIT       B_B5
      000000DCH   SFRSYM    DATA     BYTE      PCA0CPM2
      000000B8H   SFRSYM    DATA     BYTE      IP
      000000BCH   SFRSYM    DATA     BYTE      ADC0TK
      000000F0H.6 SFRSYM    DATA     BIT       B_B6
      000000C5H   SFRSYM    DATA     WORD      ADC0LT
      00000098H.5 SFRSYM    DATA     BIT       SCON0_MCE
      000000F0H.7 SFRSYM    DATA     BIT       B_B7
      00000084H   SFRSYM    DATA     BYTE      CRC0CN
      000000E1H   SFRSYM    DATA     BYTE      XBR0
      000000C1H   SFRSYM    DATA     BYTE      SMB0CF
      000000E2H   SFRSYM    DATA     BYTE      XBR1
      000000D2H   SFRSYM    DATA     BYTE      CS0SCAN0
      000000E3H   SFRSYM    DATA     BYTE      XBR2
      000000D3H   SFRSYM    DATA     BYTE      CS0SCAN1
      00000096H   SFRSYM    DATA     BYTE      ADC0MX
      000000C0H.2 SFRSYM    DATA     BIT       SMB0CN_ARBLOST
      000000E0H   SFRSYM    DATA     BIT       ACC_ACC0
      000000D1H   SFRSYM    DATA     BYTE      REF0CN
      000000F8H.1 SFRSYM    DATA     BIT       SPI0CN_TXBMT
      000000E0H.1 SFRSYM    DATA     BIT       ACC_ACC1
      000000C9H   SFRSYM    DATA     BYTE      REG0CN
      00000085H   SFRSYM    DATA     BYTE      CRC0IN
      000000C0H   SFRSYM    DATA     BIT       SMB0CN_SI
      000000E0H.2 SFRSYM    DATA     BIT       ACC_ACC2
      000000E0H.3 SFRSYM    DATA     BIT       ACC_ACC3
      00000081H   SFRSYM    DATA     BYTE      SP
      000000E0H.4 SFRSYM    DATA     BIT       ACC_ACC4
      000000E0H.5 SFRSYM    DATA     BIT       ACC_ACC5
      000000C0H   SFRSYM    DATA     BYTE      SMB0CN
LX51 LINKER/LOCATER V4.66.30.0                                                        05/16/2018  14:18:30  PAGE 24


      000000E0H.6 SFRSYM    DATA     BIT       ACC_ACC6
      000000CCH   SFRSYM    DATA     WORD      TMR2
      000000E0H.7 SFRSYM    DATA     BIT       ACC_ACC7
      00000094H   SFRSYM    DATA     WORD      TMR3
      000000FFH   SFRSYM    DATA     BYTE      VDM0CN
      000000F1H   SFRSYM    DATA     BYTE      P0MDIN
      0000009DH   SFRSYM    DATA     BYTE      CPT0MD
      0000009BH   SFRSYM    DATA     BYTE      CPT0CN
      00000098H.4 SFRSYM    DATA     BIT       SCON0_REN
      000000F2H   SFRSYM    DATA     BYTE      P1MDIN
      000000FEH   SFRSYM    DATA     BYTE      CS0THH
      000000B5H   SFRSYM    DATA     BYTE      PMU0CF
      000000C8H.7 SFRSYM    DATA     BIT       TMR2CN_TF2H
      000000C8H.3 SFRSYM    DATA     BIT       TMR2CN_T2SPLIT
      000000C7H   SFRSYM    DATA     BYTE      P0MASK
      000000F8H   SFRSYM    DATA     BYTE      SPI0CN
      000000BFH   SFRSYM    DATA     BYTE      P1MASK
      000000FDH   SFRSYM    DATA     BYTE      CS0THL
      000000D0H.3 SFRSYM    DATA     BIT       PSW_RS0
      00000087H   SFRSYM    DATA     BYTE      PCON
      000000C8H.6 SFRSYM    DATA     BIT       TMR2CN_TF2L
      000000D0H.4 SFRSYM    DATA     BIT       PSW_RS1
      000000E8H   SFRSYM    DATA     BIT       ADC0CN_ADCM0
      000000B0H.1 SFRSYM    DATA     BIT       CS0CN_CSPME
      000000E8H.1 SFRSYM    DATA     BIT       ADC0CN_ADCM1
      000000E8H.2 SFRSYM    DATA     BIT       ADC0CN_ADCM2
      000000E8H.3 SFRSYM    DATA     BIT       ADC0CN_ADWINT
      00000089H   SFRSYM    DATA     BYTE      TMOD
      00000088H   SFRSYM    DATA     BYTE      TCON
      000000B5H   SFRSYM    DATA     BYTE      PMU0MD
      000000E8H.4 SFRSYM    DATA     BIT       ADC0CN_ADBUSY
      000000CEH   SFRSYM    DATA     BYTE      PMU0FL
      0000009CH   SFRSYM    DATA     BYTE      CRC0FLIP
      000000F8H.5 SFRSYM    DATA     BIT       SPI0CN_MODF
      000000D0H   SFRSYM    DATA     BIT       PSW_PARITY
      000000A8H.4 SFRSYM    DATA     BIT       IE_ES0
      000000A8H.1 SFRSYM    DATA     BIT       IE_ET0
      000000B0H.6 SFRSYM    DATA     BIT       CS0CN_CSEOS
      000000C8H   SFRSYM    DATA     BYTE      TMR2CN
      000000A8H.3 SFRSYM    DATA     BIT       IE_ET1
      00000091H   SFRSYM    DATA     BYTE      TMR3CN
      000000D4H   SFRSYM    DATA     BYTE      P0SKIP
      000000A8H.5 SFRSYM    DATA     BIT       IE_ET2
      000000D5H   SFRSYM    DATA     BYTE      P1SKIP
      000000A8H   SFRSYM    DATA     BIT       IE_EX0
      000000B0H.5 SFRSYM    DATA     BIT       CS0CN_CSINT
      000000E5H   SFRSYM    DATA     BYTE      FLWR
      000000C8H.4 SFRSYM    DATA     BIT       TMR2CN_TF2CEN
      000000A8H.2 SFRSYM    DATA     BIT       IE_EX1
      0000009FH   SFRSYM    DATA     BYTE      CPT0MX
      00000098H.7 SFRSYM    DATA     BIT       SCON0_SMODE
      000000B3H   SFRSYM    DATA     BYTE      OSCICL
      000000A9H   SFRSYM    DATA     BYTE      CLKSEL
      000000B2H   SFRSYM    DATA     BYTE      OSCICN
      000000F0H   SFRSYM    DATA     BYTE      B
      000000BEH   SFRSYM    DATA     BYTE      ADC0H
      000000F8H.7 SFRSYM    DATA     BIT       SPI0CN_SPIF
      0000009EH   SFRSYM    DATA     BYTE      CRC0AUTO
      000000B0H.3 SFRSYM    DATA     BIT       CS0CN_CSCMPEN
      000000CAH   SFRSYM    DATA     WORD      TMR2RL
      000000BDH   SFRSYM    DATA     BYTE      ADC0L
      000000C8H.5 SFRSYM    DATA     BIT       TMR2CN_TF2LEN
LX51 LINKER/LOCATER V4.66.30.0                                                        05/16/2018  14:18:30  PAGE 25


      000000F8H.6 SFRSYM    DATA     BIT       SPI0CN_WCOL
      00000092H   SFRSYM    DATA     WORD      TMR3RL
      000000F8H.2 SFRSYM    DATA     BIT       SPI0CN_NSSMD0
      000000E0H   SFRSYM    DATA     BYTE      ACC
      000000F8H.3 SFRSYM    DATA     BIT       SPI0CN_NSSMD1
      000000FBH   SFRSYM    DATA     WORD      PCA0CP0
      000000E9H   SFRSYM    DATA     WORD      PCA0CP1
      000000EBH   SFRSYM    DATA     WORD      PCA0CP2
      0000008CH   SFRSYM    DATA     BYTE      TH0
      000000B8H.4 SFRSYM    DATA     BIT       IP_PS0
      0000008DH   SFRSYM    DATA     BYTE      TH1
      000000FAH   SFRSYM    DATA     BYTE      PCA0H
      000000B8H.1 SFRSYM    DATA     BIT       IP_PT0
      000000B8H.3 SFRSYM    DATA     BIT       IP_PT1
      000000B8H.5 SFRSYM    DATA     BIT       IP_PT2
      0000008AH   SFRSYM    DATA     BYTE      TL0
      000000B1H   SFRSYM    DATA     BYTE      OSCXCN
      000000AAH   SFRSYM    DATA     BYTE      CS0CF
      000000D0H.5 SFRSYM    DATA     BIT       PSW_F0
      000000A8H.6 SFRSYM    DATA     BIT       IE_ESPI0
      0000008BH   SFRSYM    DATA     BYTE      TL1
      000000F9H   SFRSYM    DATA     BYTE      PCA0L
      000000D0H.1 SFRSYM    DATA     BIT       PSW_F1
      00000080H   SFRSYM    DATA     BIT       P0_B0
      000000B8H   SFRSYM    DATA     BIT       IP_PX0
      00000090H   SFRSYM    DATA     BIT       P1_B0
      00000080H.1 SFRSYM    DATA     BIT       P0_B1
      000000B8H.2 SFRSYM    DATA     BIT       IP_PX1
      000000EEH   SFRSYM    DATA     BYTE      CS0DH
      00000088H.1 SFRSYM    DATA     BIT       TCON_IE0
      000000C0H.7 SFRSYM    DATA     BIT       SMB0CN_MASTER
      00000090H.1 SFRSYM    DATA     BIT       P1_B1
      00000080H.2 SFRSYM    DATA     BIT       P0_B2
      00000088H.3 SFRSYM    DATA     BIT       TCON_IE1
      000000C0H.1 SFRSYM    DATA     BIT       SMB0CN_ACK
      00000090H.2 SFRSYM    DATA     BIT       P1_B2
      00000080H.3 SFRSYM    DATA     BIT       P0_B3
      00000090H.3 SFRSYM    DATA     BIT       P1_B3
      00000080H.4 SFRSYM    DATA     BIT       P0_B4
      00000090H.4 SFRSYM    DATA     BIT       P1_B4
      00000080H.5 SFRSYM    DATA     BIT       P0_B5
      000000EDH   SFRSYM    DATA     BYTE      CS0DL
      00000090H.5 SFRSYM    DATA     BIT       P1_B5
      00000080H.6 SFRSYM    DATA     BIT       P0_B6
      000000B0H   SFRSYM    DATA     BYTE      CS0CN
      000000C0H.6 SFRSYM    DATA     BIT       SMB0CN_TXMODE
      00000090H.6 SFRSYM    DATA     BIT       P1_B6
      00000080H.7 SFRSYM    DATA     BIT       P0_B7
      00000090H.7 SFRSYM    DATA     BIT       P1_B7
      000000A0H.7 SFRSYM    DATA     BIT       P2_B7
      00000083H   SFRSYM    DATA     BYTE      DPH
      000000E8H.5 SFRSYM    DATA     BIT       ADC0CN_ADINT
      000000C4H   SFRSYM    DATA     BYTE      ADC0GTH
      000000D0H.6 SFRSYM    DATA     BIT       PSW_AC
      000000DEH   SFRSYM    DATA     BYTE      CS0SE
      00000088H.5 SFRSYM    DATA     BIT       TCON_TF0
      00000098H   SFRSYM    DATA     BIT       SCON0_RI
      00000082H   SFRSYM    DATA     BYTE      DPL
      00000088H.7 SFRSYM    DATA     BIT       TCON_TF1
      00000099H   SFRSYM    DATA     BYTE      SBUF0
      000000B9H   SFRSYM    DATA     BYTE      IREF0CF
      000000C3H   SFRSYM    DATA     BYTE      ADC0GTL
LX51 LINKER/LOCATER V4.66.30.0                                                        05/16/2018  14:18:30  PAGE 26


      00000098H.1 SFRSYM    DATA     BIT       SCON0_TI
      000000C6H   SFRSYM    DATA     BYTE      ADC0LTH
      00000088H   SFRSYM    DATA     BIT       TCON_IT0
      000000B0H.7 SFRSYM    DATA     BIT       CS0CN_CSEN
      000000EFH   SFRSYM    DATA     BYTE      RSTSRC
      000000D7H   SFRSYM    DATA     BYTE      P0MAT
      00000086H   SFRSYM    DATA     BYTE      CRC0DAT
      00000088H.2 SFRSYM    DATA     BIT       TCON_IT1
      00000098H   SFRSYM    DATA     BYTE      SCON0
      000000CFH   SFRSYM    DATA     BYTE      P1MAT
      000000DEH   SFRSYM    DATA     BYTE      CS0PM
      000000F5H   SFRSYM    DATA     BYTE      SMB0ADM
      000000C5H   SFRSYM    DATA     BYTE      ADC0LTL
      000000B8H.6 SFRSYM    DATA     BIT       IP_PSPI0
      000000D6H   SFRSYM    DATA     BYTE      IREF0CN
      000000F4H   SFRSYM    DATA     BYTE      SMB0ADR
      00000088H.4 SFRSYM    DATA     BIT       TCON_TR0
      000000ABH   SFRSYM    DATA     BYTE      CS0MX
      00000088H.6 SFRSYM    DATA     BIT       TCON_TR1
      000000C2H   SFRSYM    DATA     BYTE      SMB0DAT
      00000099H   SFRSYM    DATA     BYTE      P0DRV
      000000DDH   SFRSYM    DATA     BYTE      CS0SS
      000000C0H.5 SFRSYM    DATA     BIT       SMB0CN_STA
      000000CDH   SFRSYM    DATA     BYTE      TMR2H
      000000A1H   SFRSYM    DATA     BYTE      SPI0CFG
      0000009BH   SFRSYM    DATA     BYTE      P1DRV
      00000095H   SFRSYM    DATA     BYTE      TMR3H
      0000009DH   SFRSYM    DATA     BYTE      P2DRV
      0000009AH   SFRSYM    DATA     BYTE      CRC0CNT
      0000008EH   SFRSYM    DATA     BYTE      CKCON
      000000C8H.2 SFRSYM    DATA     BIT       TMR2CN_TR2
      000000CCH   SFRSYM    DATA     BYTE      TMR2L
      000000ACH   SFRSYM    DATA     BYTE      RTC0ADR
      00000094H   SFRSYM    DATA     BYTE      TMR3L
      000000BBH   SFRSYM    DATA     BYTE      ADC0PWR
      000000D8H   SFRSYM    DATA     BIT       PCA0CN_CCF0
      000000A8H.7 SFRSYM    DATA     BIT       IE_EA
      000000ADH   SFRSYM    DATA     BYTE      RTC0DAT
      000000D8H.1 SFRSYM    DATA     BIT       PCA0CN_CCF1
      000000B6H   SFRSYM    DATA     BYTE      FLSCL
      000000D8H.2 SFRSYM    DATA     BIT       PCA0CN_CCF2
      000000D0H.7 SFRSYM    DATA     BIT       PSW_CY
      000000B0H   SFRSYM    DATA     BIT       CS0CN_CSCMPF
      000000A3H   SFRSYM    DATA     BYTE      SPI0DAT
      000000BDH   SFRSYM    DATA     WORD      ADC0
      0000008EH   SFRSYM    DATA     BYTE      TOFFH
      000000C0H.3 SFRSYM    DATA     BIT       SMB0CN_ACKRQ
      000000D0H   SFRSYM    DATA     BYTE      PSW
      000000DFH   SFRSYM    DATA     BYTE      PCA0PWM
      000000E2H   SFRSYM    DATA     BYTE      REVID
      000000C0H.4 SFRSYM    DATA     BIT       SMB0CN_STO
      0000008DH   SFRSYM    DATA     BYTE      TOFFL
      000000B7H   SFRSYM    DATA     BYTE      FLKEY
      000000BAH   SFRSYM    DATA     BYTE      ADC0AC

      010011CFH   BLOCK     CODE     ---       LVL=0
      010011CFH   LINE      CODE     ---       #19
      010011CFH   LINE      CODE     ---       #21
      010011D2H   LINE      CODE     ---       #22
      010011D5H   LINE      CODE     ---       #23
      010011D8H   LINE      CODE     ---       #26
      010011DBH   LINE      CODE     ---       #28
LX51 LINKER/LOCATER V4.66.30.0                                                        05/16/2018  14:18:30  PAGE 27


      010011DEH   LINE      CODE     ---       #29
      ---         BLOCKEND  ---      ---       LVL=0

      01000024H   BLOCK     CODE     ---       LVL=0
      01000024H   LINE      CODE     ---       #38
      01000024H   LINE      CODE     ---       #42
      01000027H   LINE      CODE     ---       #43
      0100002AH   LINE      CODE     ---       #49
      ---         BLOCKEND  ---      ---       LVL=0

      01001246H   BLOCK     CODE     ---       LVL=0
      01001246H   LINE      CODE     ---       #54
      01001246H   LINE      CODE     ---       #60
      01001249H   LINE      CODE     ---       #64
      ---         BLOCKEND  ---      ---       LVL=0

      0100124AH   BLOCK     CODE     ---       LVL=0
      0100124AH   LINE      CODE     ---       #69
      0100124AH   LINE      CODE     ---       #78
      0100124DH   LINE      CODE     ---       #82
      ---         BLOCKEND  ---      ---       LVL=0

      0100124EH   BLOCK     CODE     ---       LVL=0
      0100124EH   LINE      CODE     ---       #87
      0100124EH   LINE      CODE     ---       #95
      01001251H   LINE      CODE     ---       #99
      ---         BLOCKEND  ---      ---       LVL=0

      01001229H   BLOCK     CODE     ---       LVL=0
      01001229H   LINE      CODE     ---       #104
      01001229H   LINE      CODE     ---       #107
      0100122CH   LINE      CODE     ---       #108
      0100122FH   LINE      CODE     ---       #129
      ---         BLOCKEND  ---      ---       LVL=0

      01001230H   BLOCK     CODE     ---       LVL=0
      01001230H   LINE      CODE     ---       #134
      01001230H   LINE      CODE     ---       #142
      01001233H   LINE      CODE     ---       #158
      01001236H   LINE      CODE     ---       #166
      ---         BLOCKEND  ---      ---       LVL=0

      0100121EH   BLOCK     CODE     ---       LVL=0
      0100121EH   BLOCK     CODE     NEAR LAB  LVL=1
      00000007H   SYMBOL    DATA     BYTE      TCON_save
      ---         BLOCKEND  ---      ---       LVL=1
      0100121EH   LINE      CODE     ---       #171
      0100121EH   LINE      CODE     ---       #174
      01001220H   LINE      CODE     ---       #176
      01001223H   LINE      CODE     ---       #193
      01001226H   LINE      CODE     ---       #199
      01001228H   LINE      CODE     ---       #204
      ---         BLOCKEND  ---      ---       LVL=0
      00000007H   SYMBOL    DATA     BYTE      TMR3CN_TR3_save
      00000004H   SYMBOL    DATA     WORD      delayCounter
      00000007H   SYMBOL    DATA     BYTE      CLKSEL_save

      01001211H   BLOCK     CODE     ---       LVL=0
      01001211H   LINE      CODE     ---       #440
      01001211H   LINE      CODE     ---       #458
      01001214H   LINE      CODE     ---       #460
      01001217H   LINE      CODE     ---       #469
LX51 LINKER/LOCATER V4.66.30.0                                                        05/16/2018  14:18:30  PAGE 28


      0100121AH   LINE      CODE     ---       #470
      0100121DH   LINE      CODE     ---       #474
      ---         BLOCKEND  ---      ---       LVL=0

      01001252H   BLOCK     CODE     ---       LVL=0
      01001252H   LINE      CODE     ---       #479
      01001252H   LINE      CODE     ---       #494
      01001255H   LINE      CODE     ---       #505
      ---         BLOCKEND  ---      ---       LVL=0

      01001237H   BLOCK     CODE     ---       LVL=0
      01001237H   LINE      CODE     ---       #510
      01001237H   LINE      CODE     ---       #528
      0100123AH   LINE      CODE     ---       #553
      0100123DH   LINE      CODE     ---       #567
      ---         BLOCKEND  ---      ---       LVL=0

      01001256H   BLOCK     CODE     ---       LVL=0
      01001256H   LINE      CODE     ---       #568
      01001256H   LINE      CODE     ---       #573
      01001259H   LINE      CODE     ---       #577
      ---         BLOCKEND  ---      ---       LVL=0
      00000007H   SYMBOL    DATA     BYTE      TCON_save

      010011A4H   BLOCK     CODE     ---       LVL=0
      010011A4H   BLOCK     CODE     NEAR LAB  LVL=1
      00000007H   SYMBOL    DATA     BYTE      TMR2CN_TR2_save
      ---         BLOCKEND  ---      ---       LVL=1
      010011A4H   LINE      CODE     ---       #615
      010011A4H   LINE      CODE     ---       #616
      010011A8H   LINE      CODE     ---       #618
      010011ABH   LINE      CODE     ---       #628
      010011AEH   LINE      CODE     ---       #635
      010011B1H   LINE      CODE     ---       #642
      010011B4H   LINE      CODE     ---       #649
      010011B7H   LINE      CODE     ---       #658
      010011BAH   LINE      CODE     ---       #663
      010011BCH   LINE      CODE     ---       #668
      ---         BLOCKEND  ---      ---       LVL=0

      010011E1H   BLOCK     CODE     ---       LVL=0
      010011E1H   LINE      CODE     ---       #674
      010011E1H   LINE      CODE     ---       #676
      010011E4H   LINE      CODE     ---       #677
      010011E7H   LINE      CODE     ---       #678
      010011EAH   LINE      CODE     ---       #679
      010011EDH   LINE      CODE     ---       #681
      010011F0H   LINE      CODE     ---       #682
      ---         BLOCKEND  ---      ---       LVL=0

      ---         MODULE    ---      ---       INTERRUPTS
      00000008H   PUBLIC    DATA     BYTE      ADDR_SEND
      01000EFCH   PUBLIC    CODE     ---       SMBUS0_ISR
      000000A2H   SFRSYM    DATA     BYTE      SPI0CKR
      00000080H   SFRSYM    DATA     BYTE      P0
      000000D0H.2 SFRSYM    DATA     BIT       PSW_OV
      000000D8H.7 SFRSYM    DATA     BIT       PCA0CN_CF
      00000090H   SFRSYM    DATA     BYTE      P1
      000000F8H.4 SFRSYM    DATA     BIT       SPI0CN_RXOVRN
      000000A0H   SFRSYM    DATA     BYTE      P2
      00000097H   SFRSYM    DATA     BYTE      ADC0CF
      000000C8H   SFRSYM    DATA     BIT       TMR2CN_T2XCLK0
LX51 LINKER/LOCATER V4.66.30.0                                                        05/16/2018  14:18:30  PAGE 29


      000000C8H.1 SFRSYM    DATA     BIT       TMR2CN_T2XCLK1
      000000E8H.7 SFRSYM    DATA     BIT       ADC0CN_ADEN
      000000F9H   SFRSYM    DATA     WORD      PCA0
      000000AEH   SFRSYM    DATA     BYTE      RTC0KEY
      000000E6H   SFRSYM    DATA     BYTE      EIE1
      000000E7H   SFRSYM    DATA     BYTE      EIE2
      0000008FH   SFRSYM    DATA     BYTE      PSCTL
      000000E4H   SFRSYM    DATA     BYTE      IT01CF
      000000E3H   SFRSYM    DATA     BYTE      DERIVID
      000000AFH   SFRSYM    DATA     BYTE      CS0MD1
      000000A7H   SFRSYM    DATA     BYTE      SFRPAGE
      000000F3H   SFRSYM    DATA     BYTE      CS0MD2
      000000E8H   SFRSYM    DATA     BYTE      ADC0CN
      000000A4H   SFRSYM    DATA     BYTE      P0MDOUT
      000000F3H   SFRSYM    DATA     BYTE      CS0MD3
      000000D8H.6 SFRSYM    DATA     BIT       PCA0CN_CR
      000000A5H   SFRSYM    DATA     BYTE      P1MDOUT
      000000CBH   SFRSYM    DATA     BYTE      TMR2RLH
      000000A6H   SFRSYM    DATA     BYTE      P2MDOUT
      000000A8H   SFRSYM    DATA     BYTE      IE
      00000093H   SFRSYM    DATA     BYTE      TMR3RLH
      000000F6H   SFRSYM    DATA     BYTE      EIP1
      000000F8H   SFRSYM    DATA     BIT       SPI0CN_SPIEN
      000000F7H   SFRSYM    DATA     BYTE      EIP2
      00000098H.2 SFRSYM    DATA     BIT       SCON0_RB8
      000000CAH   SFRSYM    DATA     BYTE      TMR2RLL
      000000FCH   SFRSYM    DATA     BYTE      PCA0CPH0
      00000092H   SFRSYM    DATA     BYTE      TMR3RLL
      000000EAH   SFRSYM    DATA     BYTE      PCA0CPH1
      00000098H.3 SFRSYM    DATA     BIT       SCON0_TB8
      000000F0H   SFRSYM    DATA     BIT       B_B0
      00000082H   SFRSYM    DATA     WORD      DP
      000000ECH   SFRSYM    DATA     BYTE      PCA0CPH2
      000000B0H.4 SFRSYM    DATA     BIT       CS0CN_CSBUSY
      000000F0H.1 SFRSYM    DATA     BIT       B_B1
      000000E8H.6 SFRSYM    DATA     BIT       ADC0CN_ADBMEN
      000000C3H   SFRSYM    DATA     WORD      ADC0GT
      000000F0H.2 SFRSYM    DATA     BIT       B_B2
      000000FBH   SFRSYM    DATA     BYTE      PCA0CPL0
      000000F0H.3 SFRSYM    DATA     BIT       B_B3
      000000D9H   SFRSYM    DATA     BYTE      PCA0MD
      000000DAH   SFRSYM    DATA     BYTE      PCA0CPM0
      000000E9H   SFRSYM    DATA     BYTE      PCA0CPL1
      000000D8H   SFRSYM    DATA     BYTE      PCA0CN
      000000F0H.4 SFRSYM    DATA     BIT       B_B4
      000000DBH   SFRSYM    DATA     BYTE      PCA0CPM1
      000000EBH   SFRSYM    DATA     BYTE      PCA0CPL2
      000000F0H.5 SFRSYM    DATA     BIT       B_B5
      000000DCH   SFRSYM    DATA     BYTE      PCA0CPM2
      000000B8H   SFRSYM    DATA     BYTE      IP
      000000BCH   SFRSYM    DATA     BYTE      ADC0TK
      000000F0H.6 SFRSYM    DATA     BIT       B_B6
      000000C5H   SFRSYM    DATA     WORD      ADC0LT
      00000098H.5 SFRSYM    DATA     BIT       SCON0_MCE
      000000F0H.7 SFRSYM    DATA     BIT       B_B7
      00000084H   SFRSYM    DATA     BYTE      CRC0CN
      000000E1H   SFRSYM    DATA     BYTE      XBR0
      000000C1H   SFRSYM    DATA     BYTE      SMB0CF
      000000E2H   SFRSYM    DATA     BYTE      XBR1
      000000D2H   SFRSYM    DATA     BYTE      CS0SCAN0
      000000E3H   SFRSYM    DATA     BYTE      XBR2
      000000D3H   SFRSYM    DATA     BYTE      CS0SCAN1
LX51 LINKER/LOCATER V4.66.30.0                                                        05/16/2018  14:18:30  PAGE 30


      00000096H   SFRSYM    DATA     BYTE      ADC0MX
      000000C0H.2 SFRSYM    DATA     BIT       SMB0CN_ARBLOST
      000000E0H   SFRSYM    DATA     BIT       ACC_ACC0
      000000D1H   SFRSYM    DATA     BYTE      REF0CN
      000000F8H.1 SFRSYM    DATA     BIT       SPI0CN_TXBMT
      000000E0H.1 SFRSYM    DATA     BIT       ACC_ACC1
      000000C9H   SFRSYM    DATA     BYTE      REG0CN
      00000085H   SFRSYM    DATA     BYTE      CRC0IN
      000000C0H   SFRSYM    DATA     BIT       SMB0CN_SI
      000000E0H.2 SFRSYM    DATA     BIT       ACC_ACC2
      000000E0H.3 SFRSYM    DATA     BIT       ACC_ACC3
      00000081H   SFRSYM    DATA     BYTE      SP
      000000E0H.4 SFRSYM    DATA     BIT       ACC_ACC4
      000000E0H.5 SFRSYM    DATA     BIT       ACC_ACC5
      000000C0H   SFRSYM    DATA     BYTE      SMB0CN
      000000E0H.6 SFRSYM    DATA     BIT       ACC_ACC6
      000000CCH   SFRSYM    DATA     WORD      TMR2
      000000E0H.7 SFRSYM    DATA     BIT       ACC_ACC7
      00000094H   SFRSYM    DATA     WORD      TMR3
      000000FFH   SFRSYM    DATA     BYTE      VDM0CN
      000000F1H   SFRSYM    DATA     BYTE      P0MDIN
      0000009DH   SFRSYM    DATA     BYTE      CPT0MD
      0000009BH   SFRSYM    DATA     BYTE      CPT0CN
      00000098H.4 SFRSYM    DATA     BIT       SCON0_REN
      000000F2H   SFRSYM    DATA     BYTE      P1MDIN
      000000FEH   SFRSYM    DATA     BYTE      CS0THH
      000000B5H   SFRSYM    DATA     BYTE      PMU0CF
      000000C8H.7 SFRSYM    DATA     BIT       TMR2CN_TF2H
      000000C8H.3 SFRSYM    DATA     BIT       TMR2CN_T2SPLIT
      000000C7H   SFRSYM    DATA     BYTE      P0MASK
      000000F8H   SFRSYM    DATA     BYTE      SPI0CN
      000000BFH   SFRSYM    DATA     BYTE      P1MASK
      000000FDH   SFRSYM    DATA     BYTE      CS0THL
      000000D0H.3 SFRSYM    DATA     BIT       PSW_RS0
      00000087H   SFRSYM    DATA     BYTE      PCON
      000000C8H.6 SFRSYM    DATA     BIT       TMR2CN_TF2L
      000000D0H.4 SFRSYM    DATA     BIT       PSW_RS1
      000000E8H   SFRSYM    DATA     BIT       ADC0CN_ADCM0
      000000B0H.1 SFRSYM    DATA     BIT       CS0CN_CSPME
      000000E8H.1 SFRSYM    DATA     BIT       ADC0CN_ADCM1
      000000E8H.2 SFRSYM    DATA     BIT       ADC0CN_ADCM2
      000000E8H.3 SFRSYM    DATA     BIT       ADC0CN_ADWINT
      00000089H   SFRSYM    DATA     BYTE      TMOD
      00000088H   SFRSYM    DATA     BYTE      TCON
      000000B5H   SFRSYM    DATA     BYTE      PMU0MD
      000000E8H.4 SFRSYM    DATA     BIT       ADC0CN_ADBUSY
      000000CEH   SFRSYM    DATA     BYTE      PMU0FL
      0000009CH   SFRSYM    DATA     BYTE      CRC0FLIP
      000000F8H.5 SFRSYM    DATA     BIT       SPI0CN_MODF
      000000D0H   SFRSYM    DATA     BIT       PSW_PARITY
      000000A8H.4 SFRSYM    DATA     BIT       IE_ES0
      000000A8H.1 SFRSYM    DATA     BIT       IE_ET0
      000000B0H.6 SFRSYM    DATA     BIT       CS0CN_CSEOS
      000000C8H   SFRSYM    DATA     BYTE      TMR2CN
      000000A8H.3 SFRSYM    DATA     BIT       IE_ET1
      00000091H   SFRSYM    DATA     BYTE      TMR3CN
      000000D4H   SFRSYM    DATA     BYTE      P0SKIP
      000000A8H.5 SFRSYM    DATA     BIT       IE_ET2
      000000D5H   SFRSYM    DATA     BYTE      P1SKIP
      000000A8H   SFRSYM    DATA     BIT       IE_EX0
      000000B0H.5 SFRSYM    DATA     BIT       CS0CN_CSINT
      000000E5H   SFRSYM    DATA     BYTE      FLWR
LX51 LINKER/LOCATER V4.66.30.0                                                        05/16/2018  14:18:30  PAGE 31


      000000C8H.4 SFRSYM    DATA     BIT       TMR2CN_TF2CEN
      000000A8H.2 SFRSYM    DATA     BIT       IE_EX1
      0000009FH   SFRSYM    DATA     BYTE      CPT0MX
      00000098H.7 SFRSYM    DATA     BIT       SCON0_SMODE
      000000B3H   SFRSYM    DATA     BYTE      OSCICL
      000000A9H   SFRSYM    DATA     BYTE      CLKSEL
      000000B2H   SFRSYM    DATA     BYTE      OSCICN
      000000F0H   SFRSYM    DATA     BYTE      B
      000000BEH   SFRSYM    DATA     BYTE      ADC0H
      00000090H.5 SFRSYM    DATA     BIT       CO2_ON
      000000F8H.7 SFRSYM    DATA     BIT       SPI0CN_SPIF
      0000009EH   SFRSYM    DATA     BYTE      CRC0AUTO
      000000B0H.3 SFRSYM    DATA     BIT       CS0CN_CSCMPEN
      000000CAH   SFRSYM    DATA     WORD      TMR2RL
      000000BDH   SFRSYM    DATA     BYTE      ADC0L
      000000C8H.5 SFRSYM    DATA     BIT       TMR2CN_TF2LEN
      000000F8H.6 SFRSYM    DATA     BIT       SPI0CN_WCOL
      00000092H   SFRSYM    DATA     WORD      TMR3RL
      000000F8H.2 SFRSYM    DATA     BIT       SPI0CN_NSSMD0
      000000E0H   SFRSYM    DATA     BYTE      ACC
      000000F8H.3 SFRSYM    DATA     BIT       SPI0CN_NSSMD1
      000000FBH   SFRSYM    DATA     WORD      PCA0CP0
      000000E9H   SFRSYM    DATA     WORD      PCA0CP1
      000000EBH   SFRSYM    DATA     WORD      PCA0CP2
      0000008CH   SFRSYM    DATA     BYTE      TH0
      000000B8H.4 SFRSYM    DATA     BIT       IP_PS0
      0000008DH   SFRSYM    DATA     BYTE      TH1
      000000FAH   SFRSYM    DATA     BYTE      PCA0H
      000000B8H.1 SFRSYM    DATA     BIT       IP_PT0
      000000B8H.3 SFRSYM    DATA     BIT       IP_PT1
      000000B8H.5 SFRSYM    DATA     BIT       IP_PT2
      0000008AH   SFRSYM    DATA     BYTE      TL0
      000000B1H   SFRSYM    DATA     BYTE      OSCXCN
      000000AAH   SFRSYM    DATA     BYTE      CS0CF
      000000D0H.5 SFRSYM    DATA     BIT       PSW_F0
      000000A8H.6 SFRSYM    DATA     BIT       IE_ESPI0
      0000008BH   SFRSYM    DATA     BYTE      TL1
      000000F9H   SFRSYM    DATA     BYTE      PCA0L
      000000D0H.1 SFRSYM    DATA     BIT       PSW_F1
      00000080H   SFRSYM    DATA     BIT       P0_B0
      000000B8H   SFRSYM    DATA     BIT       IP_PX0
      00000090H   SFRSYM    DATA     BIT       P1_B0
      00000080H.1 SFRSYM    DATA     BIT       P0_B1
      000000B8H.2 SFRSYM    DATA     BIT       IP_PX1
      000000EEH   SFRSYM    DATA     BYTE      CS0DH
      00000088H.1 SFRSYM    DATA     BIT       TCON_IE0
      000000C0H.7 SFRSYM    DATA     BIT       SMB0CN_MASTER
      00000090H.1 SFRSYM    DATA     BIT       P1_B1
      00000080H.2 SFRSYM    DATA     BIT       P0_B2
      00000088H.3 SFRSYM    DATA     BIT       TCON_IE1
      000000C0H.1 SFRSYM    DATA     BIT       SMB0CN_ACK
      00000090H.2 SFRSYM    DATA     BIT       P1_B2
      00000080H.3 SFRSYM    DATA     BIT       P0_B3
      00000090H.3 SFRSYM    DATA     BIT       P1_B3
      00000080H.4 SFRSYM    DATA     BIT       P0_B4
      00000090H.4 SFRSYM    DATA     BIT       P1_B4
      00000080H.5 SFRSYM    DATA     BIT       P0_B5
      000000EDH   SFRSYM    DATA     BYTE      CS0DL
      00000090H.5 SFRSYM    DATA     BIT       P1_B5
      00000080H.6 SFRSYM    DATA     BIT       P0_B6
      000000B0H   SFRSYM    DATA     BYTE      CS0CN
      000000C0H.6 SFRSYM    DATA     BIT       SMB0CN_TXMODE
LX51 LINKER/LOCATER V4.66.30.0                                                        05/16/2018  14:18:30  PAGE 32


      00000090H.6 SFRSYM    DATA     BIT       P1_B6
      00000080H.7 SFRSYM    DATA     BIT       P0_B7
      00000090H.7 SFRSYM    DATA     BIT       P1_B7
      000000A0H.7 SFRSYM    DATA     BIT       P2_B7
      00000083H   SFRSYM    DATA     BYTE      DPH
      000000E8H.5 SFRSYM    DATA     BIT       ADC0CN_ADINT
      000000C4H   SFRSYM    DATA     BYTE      ADC0GTH
      000000D0H.6 SFRSYM    DATA     BIT       PSW_AC
      000000DEH   SFRSYM    DATA     BYTE      CS0SE
      00000088H.5 SFRSYM    DATA     BIT       TCON_TF0
      00000098H   SFRSYM    DATA     BIT       SCON0_RI
      00000082H   SFRSYM    DATA     BYTE      DPL
      00000088H.7 SFRSYM    DATA     BIT       TCON_TF1
      00000099H   SFRSYM    DATA     BYTE      SBUF0
      000000B9H   SFRSYM    DATA     BYTE      IREF0CF
      000000C3H   SFRSYM    DATA     BYTE      ADC0GTL
      00000098H.1 SFRSYM    DATA     BIT       SCON0_TI
      000000C6H   SFRSYM    DATA     BYTE      ADC0LTH
      00000088H   SFRSYM    DATA     BIT       TCON_IT0
      000000B0H.7 SFRSYM    DATA     BIT       CS0CN_CSEN
      000000EFH   SFRSYM    DATA     BYTE      RSTSRC
      000000D7H   SFRSYM    DATA     BYTE      P0MAT
      00000086H   SFRSYM    DATA     BYTE      CRC0DAT
      00000088H.2 SFRSYM    DATA     BIT       TCON_IT1
      00000098H   SFRSYM    DATA     BYTE      SCON0
      000000CFH   SFRSYM    DATA     BYTE      P1MAT
      000000DEH   SFRSYM    DATA     BYTE      CS0PM
      000000F5H   SFRSYM    DATA     BYTE      SMB0ADM
      000000C5H   SFRSYM    DATA     BYTE      ADC0LTL
      000000B8H.6 SFRSYM    DATA     BIT       IP_PSPI0
      000000D6H   SFRSYM    DATA     BYTE      IREF0CN
      000000F4H   SFRSYM    DATA     BYTE      SMB0ADR
      00000088H.4 SFRSYM    DATA     BIT       TCON_TR0
      000000ABH   SFRSYM    DATA     BYTE      CS0MX
      00000088H.6 SFRSYM    DATA     BIT       TCON_TR1
      000000C2H   SFRSYM    DATA     BYTE      SMB0DAT
      00000099H   SFRSYM    DATA     BYTE      P0DRV
      000000DDH   SFRSYM    DATA     BYTE      CS0SS
      000000C0H.5 SFRSYM    DATA     BIT       SMB0CN_STA
      000000CDH   SFRSYM    DATA     BYTE      TMR2H
      000000A1H   SFRSYM    DATA     BYTE      SPI0CFG
      0000009BH   SFRSYM    DATA     BYTE      P1DRV
      00000095H   SFRSYM    DATA     BYTE      TMR3H
      0000009DH   SFRSYM    DATA     BYTE      P2DRV
      0000009AH   SFRSYM    DATA     BYTE      CRC0CNT
      0000008EH   SFRSYM    DATA     BYTE      CKCON
      00000090H.3 SFRSYM    DATA     BIT       BME680_ON
      000000C8H.2 SFRSYM    DATA     BIT       TMR2CN_TR2
      000000CCH   SFRSYM    DATA     BYTE      TMR2L
      000000ACH   SFRSYM    DATA     BYTE      RTC0ADR
      00000094H   SFRSYM    DATA     BYTE      TMR3L
      000000BBH   SFRSYM    DATA     BYTE      ADC0PWR
      000000D8H   SFRSYM    DATA     BIT       PCA0CN_CCF0
      000000A8H.7 SFRSYM    DATA     BIT       IE_EA
      000000ADH   SFRSYM    DATA     BYTE      RTC0DAT
      000000D8H.1 SFRSYM    DATA     BIT       PCA0CN_CCF1
      000000B6H   SFRSYM    DATA     BYTE      FLSCL
      000000D8H.2 SFRSYM    DATA     BIT       PCA0CN_CCF2
      00000090H.2 SFRSYM    DATA     BIT       LUX_ON
      000000D0H.7 SFRSYM    DATA     BIT       PSW_CY
      000000B0H   SFRSYM    DATA     BIT       CS0CN_CSCMPF
      000000A3H   SFRSYM    DATA     BYTE      SPI0DAT
LX51 LINKER/LOCATER V4.66.30.0                                                        05/16/2018  14:18:30  PAGE 33


      000000BDH   SFRSYM    DATA     WORD      ADC0
      0000008EH   SFRSYM    DATA     BYTE      TOFFH
      000000C0H.3 SFRSYM    DATA     BIT       SMB0CN_ACKRQ
      000000D0H   SFRSYM    DATA     BYTE      PSW
      000000DFH   SFRSYM    DATA     BYTE      PCA0PWM
      000000E2H   SFRSYM    DATA     BYTE      REVID
      000000C0H.4 SFRSYM    DATA     BIT       SMB0CN_STO
      0000008DH   SFRSYM    DATA     BYTE      TOFFL
      000000B7H   SFRSYM    DATA     BYTE      FLKEY
      000000BAH   SFRSYM    DATA     BYTE      ADC0AC

      01000EFCH   BLOCK     CODE     ---       LVL=0
      01000F07H   BLOCK     CODE     NEAR LAB  LVL=1
      00000020H.4 SYMBOL    BIT      BIT       FAIL
      ---         BLOCKEND  ---      ---       LVL=1
      01000EFCH   LINE      CODE     ---       #47
      01000F07H   LINE      CODE     ---       #49
      01000F09H   LINE      CODE     ---       #54
      01000F0FH   LINE      CODE     ---       #55
      01000F0FH   LINE      CODE     ---       #57
      01000F25H   LINE      CODE     ---       #58
      01000F25H   LINE      CODE     ---       #60
      01000F25H   LINE      CODE     ---       #62
      01000F28H   LINE      CODE     ---       #63
      01000F2BH   LINE      CODE     ---       #65
      01000F31H   LINE      CODE     ---       #66
      01000F33H   LINE      CODE     ---       #67
      01000F36H   LINE      CODE     ---       #68
      01000F39H   LINE      CODE     ---       #70
      01000F3CH   LINE      CODE     ---       #73
      01000F3CH   LINE      CODE     ---       #74
      01000F3FH   LINE      CODE     ---       #75
      01000F3FH   LINE      CODE     ---       #76
      01000F43H   LINE      CODE     ---       #77
      01000F43H   LINE      CODE     ---       #82
      01000F46H   LINE      CODE     ---       #83
      01000F46H   LINE      CODE     ---       #84
      01000F4CH   LINE      CODE     ---       #85
      01000F4CH   LINE      CODE     ---       #86
      01000F53H   LINE      CODE     ---       #87
      01000F5DH   LINE      CODE     ---       #88
      01000F5FH   LINE      CODE     ---       #89
      01000F62H   LINE      CODE     ---       #90
      01000F65H   LINE      CODE     ---       #91
      01000F65H   LINE      CODE     ---       #92
      01000F65H   LINE      CODE     ---       #93
      01000F67H   LINE      CODE     ---       #94
      01000F6AH   LINE      CODE     ---       #95
      01000F6DH   LINE      CODE     ---       #96
      01000F6DH   LINE      CODE     ---       #98
      01000F72H   LINE      CODE     ---       #99
      01000F75H   LINE      CODE     ---       #100
      01000F75H   LINE      CODE     ---       #101
      01000F7AH   LINE      CODE     ---       #102
      01000F7DH   LINE      CODE     ---       #103
      01000F7DH   LINE      CODE     ---       #105
      01000F7DH   LINE      CODE     ---       #106
      01000F82H   LINE      CODE     ---       #107
      01000F85H   LINE      CODE     ---       #108
      01000F87H   LINE      CODE     ---       #109
      01000F8CH   LINE      CODE     ---       #110
      01000F8FH   LINE      CODE     ---       #113
LX51 LINKER/LOCATER V4.66.30.0                                                        05/16/2018  14:18:30  PAGE 34


      01000F8FH   LINE      CODE     ---       #114
      01000F93H   LINE      CODE     ---       #115
      01000F95H   LINE      CODE     ---       #117
      01000F97H   LINE      CODE     ---       #119
      01000F97H   LINE      CODE     ---       #120
      01000F97H   LINE      CODE     ---       #124
      01000F97H   LINE      CODE     ---       #126
      01000F97H   LINE      CODE     ---       #128
      01000F9DH   LINE      CODE     ---       #129
      01000F9DH   LINE      CODE     ---       #130
      01000F9DH   LINE      CODE     ---       #131
      01000F9DH   LINE      CODE     ---       #132
      01000F9DH   LINE      CODE     ---       #135
      01000F9DH   LINE      CODE     ---       #136
      01000F9FH   LINE      CODE     ---       #138
      01000F9FH   LINE      CODE     ---       #139
      01000FA1H   LINE      CODE     ---       #140
      01000FA3H   LINE      CODE     ---       #141
      01000FA3H   LINE      CODE     ---       #142
      01000FA5H   LINE      CODE     ---       #145
      01000FA5H   LINE      CODE     ---       #146
      01000FA8H   LINE      CODE     ---       #147
      01000FA8H   LINE      CODE     ---       #148
      01000FAFH   LINE      CODE     ---       #149
      01000FAFH   LINE      CODE     ---       #150
      01000FB4H   LINE      CODE     ---       #151
      01000FBCH   LINE      CODE     ---       #152
      01000FC3H   LINE      CODE     ---       #153
      01000FC8H   LINE      CODE     ---       #154
      01000FC8H   LINE      CODE     ---       #156
      01000FC8H   LINE      CODE     ---       #157
      01000FCAH   LINE      CODE     ---       #158
      01000FCCH   LINE      CODE     ---       #159
      01000FCEH   LINE      CODE     ---       #161
      01000FD0H   LINE      CODE     ---       #162
      01000FD0H   LINE      CODE     ---       #163
      01000FD0H   LINE      CODE     ---       #164
      01000FD0H   LINE      CODE     ---       #166
      01000FD2H   LINE      CODE     ---       #167
      01000FD5H   LINE      CODE     ---       #168
      01000FD7H   LINE      CODE     ---       #169
      01000FD9H   LINE      CODE     ---       #170
      01000FDBH   LINE      CODE     ---       #174
      01000FDBH   LINE      CODE     ---       #175
      01000FDDH   LINE      CODE     ---       #177
      01000FDDH   LINE      CODE     ---       #178
      01000FDFH   LINE      CODE     ---       #180
      01000FE1H   LINE      CODE     ---       #182
      01000FE1H   LINE      CODE     ---       #183
      01000FE1H   LINE      CODE     ---       #185
      01000FE1H   LINE      CODE     ---       #187
      01000FE3H   LINE      CODE     ---       #188
      01000FE3H   LINE      CODE     ---       #190
      01000FE6H   LINE      CODE     ---       #191
      01000FE6H   LINE      CODE     ---       #192
      01000FE9H   LINE      CODE     ---       #193
      01000FECH   LINE      CODE     ---       #194
      01000FEEH   LINE      CODE     ---       #195
      01000FF0H   LINE      CODE     ---       #196
      01000FF2H   LINE      CODE     ---       #198
      01000FF4H   LINE      CODE     ---       #200
      01000FF6H   LINE      CODE     ---       #202
LX51 LINKER/LOCATER V4.66.30.0                                                        05/16/2018  14:18:30  PAGE 35


      01000FF6H   LINE      CODE     ---       #204
      01000FF8H   LINE      CODE     ---       #205
      ---         BLOCKEND  ---      ---       LVL=0

      ---         MODULE    ---      ---       ?C_STARTUP
      01000000H   PUBLIC    CODE     NEAR LAB  ?C_STARTUP
      000000E0H   SFRSYM    DATA     BYTE      ACC
      000000F0H   SFRSYM    DATA     BYTE      B
      00000083H   SFRSYM    DATA     BYTE      DPH
      00000082H   SFRSYM    DATA     BYTE      DPL
      000000A0H   SFRSYM    DATA     BYTE      PPAGE_SFR
      00000081H   SFRSYM    DATA     BYTE      SP
      00000000H   SYMBOL    NUMBER   ---       IBPSTACK
      00000100H   SYMBOL    NUMBER   ---       IBPSTACKTOP
      00000080H   SYMBOL    NUMBER   ---       IDATALEN
      01001007H   SYMBOL    CODE     NEAR LAB  IDATALOOP
      00000000H   SYMBOL    NUMBER   ---       PBPSTACK
      00000100H   SYMBOL    NUMBER   ---       PBPSTACKTOP
      00000000H   SYMBOL    NUMBER   ---       PDATALEN
      00000000H   SYMBOL    NUMBER   ---       PDATASTART
      00000000H   SYMBOL    NUMBER   ---       PPAGE
      00000000H   SYMBOL    NUMBER   ---       PPAGEENABLE
      01001001H   SYMBOL    CODE     NEAR LAB  STARTUP1
      00000000H   SYMBOL    NUMBER   ---       XBPSTACK
      00010000H   SYMBOL    NUMBER   ---       XBPSTACKTOP
      00000000H   SYMBOL    NUMBER   ---       XDATALEN
      00000000H   SYMBOL    NUMBER   ---       XDATASTART

      01000000H   BLOCK     CODE     NEAR LAB  LVL=0
      01000000H   LINE      CODE     ---       #126
      ---         BLOCKEND  ---      ---       LVL=0

      01001001H   BLOCK     CODE     NEAR LAB  LVL=0
      01001001H   LINE      CODE     ---       #134
      01001004H   LINE      CODE     ---       #138
      01001006H   LINE      CODE     ---       #139
      01001007H   LINE      CODE     ---       #140
      01001008H   LINE      CODE     ---       #141
      0100100AH   LINE      CODE     ---       #190
      0100100DH   LINE      CODE     ---       #201
      ---         BLOCKEND  ---      ---       LVL=0

      ---         MODULE    ---      ---       ?C?FPADD
      01000045H   PUBLIC    CODE     ---       ?C?FPADD
      01000041H   PUBLIC    CODE     ---       ?C?FPSUB

      ---         MODULE    ---      ---       ?C?FPMUL
      01000136H   PUBLIC    CODE     ---       ?C?FPMUL

      ---         MODULE    ---      ---       ?C?FPDIV
      0100023FH   PUBLIC    CODE     ---       ?C?FPDIV

      ---         MODULE    ---      ---       ?C?FCAST
      010002E6H   PUBLIC    CODE     ---       ?C?FCASTC
      010002E1H   PUBLIC    CODE     ---       ?C?FCASTI
      010002DCH   PUBLIC    CODE     ---       ?C?FCASTL

      ---         MODULE    ---      ---       ?C?CASTF
      0100031AH   PUBLIC    CODE     ---       ?C?CASTF

      ---         MODULE    ---      ---       ?C?FPGETOPN
      01000351H   PUBLIC    CODE     ---       ?C?FPGETOPN2
LX51 LINKER/LOCATER V4.66.30.0                                                        05/16/2018  14:18:30  PAGE 36


      01000386H   PUBLIC    CODE     ---       ?C?FPNANRESULT
      01000390H   PUBLIC    CODE     ---       ?C?FPOVERFLOW
      01000368H   PUBLIC    CODE     ---       ?C?FPRESULT
      0100037CH   PUBLIC    CODE     ---       ?C?FPRESULT2
      0100038DH   PUBLIC    CODE     ---       ?C?FPUNDERFLOW

      ---         MODULE    ---      ---       ?C_INIT
      0100104BH   PUBLIC    CODE     ---       ?C_START

      ---         MODULE    ---      ---       ?C?CLDPTR
      0100039BH   PUBLIC    CODE     ---       ?C?CLDPTR

      ---         MODULE    ---      ---       ?C?CSTPTR
      010003B4H   PUBLIC    CODE     ---       ?C?CSTPTR

      ---         MODULE    ---      ---       ?C?IMUL
      010003C6H   PUBLIC    CODE     ---       ?C?IMUL

      ---         MODULE    ---      ---       ?C?LMUL
      010003D8H   PUBLIC    CODE     ---       ?C?LMUL

      ---         MODULE    ---      ---       ?C?ULDIV
      01000463H   PUBLIC    CODE     ---       ?C?ULDIV

      ---         MODULE    ---      ---       ?C?SLDIV
      01001125H   PUBLIC    CODE     ---       ?C?SLDIV

      ---         MODULE    ---      ---       ?C?LNEG
      010004F5H   PUBLIC    CODE     ---       ?C?LNEG

      ---         MODULE    ---      ---       ?C?SLCMP
      01000503H   PUBLIC    CODE     ---       ?C?SLCMP

      ---         MODULE    ---      ---       ?C?ULCMP
      01000519H   PUBLIC    CODE     ---       ?C?ULCMP

      ---         MODULE    ---      ---       ?C?SLSHR
      0100052AH   PUBLIC    CODE     ---       ?C?SLSHR

      ---         MODULE    ---      ---       ?C?LSHL
      0100053EH   PUBLIC    CODE     ---       ?C?LSHL

Program Size: data=105.5 xdata=1 const=0 code=4699
LX51 RUN COMPLETE.  0 WARNING(S),  0 ERROR(S)
